
vmscan.o:     file format elf64-x86-64


Disassembly of section .text:

0000000000000000 <__traceiter_mm_vmscan_kswapd_sleep>:
#define trace_reclaim_flags(file) ( \
	(file ? RECLAIM_WB_FILE : RECLAIM_WB_ANON) | \
	(RECLAIM_WB_ASYNC) \
	)

TRACE_EVENT(mm_vmscan_kswapd_sleep,
       0:	e8 00 00 00 00       	call   5 <__traceiter_mm_vmscan_kswapd_sleep+0x5>
       5:	55                   	push   %rbp
       6:	48 89 e5             	mov    %rsp,%rbp
       9:	41 54                	push   %r12
       b:	53                   	push   %rbx
       c:	48 8b 1d 00 00 00 00 	mov    0x0(%rip),%rbx        # 13 <__traceiter_mm_vmscan_kswapd_sleep+0x13>
      13:	48 85 db             	test   %rbx,%rbx
      16:	74 1c                	je     34 <__traceiter_mm_vmscan_kswapd_sleep+0x34>
      18:	41 89 f4             	mov    %esi,%r12d
      1b:	48 8b 03             	mov    (%rbx),%rax
      1e:	48 8b 7b 08          	mov    0x8(%rbx),%rdi
      22:	48 83 c3 18          	add    $0x18,%rbx
      26:	44 89 e6             	mov    %r12d,%esi
      29:	e8 00 00 00 00       	call   2e <__traceiter_mm_vmscan_kswapd_sleep+0x2e>
      2e:	48 83 3b 00          	cmpq   $0x0,(%rbx)
      32:	75 e7                	jne    1b <__traceiter_mm_vmscan_kswapd_sleep+0x1b>
      34:	5b                   	pop    %rbx
      35:	31 c0                	xor    %eax,%eax
      37:	41 5c                	pop    %r12
      39:	5d                   	pop    %rbp
      3a:	c3                   	ret    
      3b:	0f 1f 44 00 00       	nopl   0x0(%rax,%rax,1)

0000000000000040 <__traceiter_mm_vmscan_kswapd_wake>:
	),

	TP_printk("nid=%d", __entry->nid)
);

TRACE_EVENT(mm_vmscan_kswapd_wake,
      40:	e8 00 00 00 00       	call   45 <__traceiter_mm_vmscan_kswapd_wake+0x5>
      45:	55                   	push   %rbp
      46:	48 89 e5             	mov    %rsp,%rbp
      49:	41 56                	push   %r14
      4b:	41 55                	push   %r13
      4d:	41 54                	push   %r12
      4f:	53                   	push   %rbx
      50:	48 8b 1d 00 00 00 00 	mov    0x0(%rip),%rbx        # 57 <__traceiter_mm_vmscan_kswapd_wake+0x17>
      57:	48 85 db             	test   %rbx,%rbx
      5a:	74 28                	je     84 <__traceiter_mm_vmscan_kswapd_wake+0x44>
      5c:	41 89 f6             	mov    %esi,%r14d
      5f:	41 89 d5             	mov    %edx,%r13d
      62:	41 89 cc             	mov    %ecx,%r12d
      65:	48 8b 03             	mov    (%rbx),%rax
      68:	48 8b 7b 08          	mov    0x8(%rbx),%rdi
      6c:	48 83 c3 18          	add    $0x18,%rbx
      70:	44 89 e1             	mov    %r12d,%ecx
      73:	44 89 ea             	mov    %r13d,%edx
      76:	44 89 f6             	mov    %r14d,%esi
      79:	e8 00 00 00 00       	call   7e <__traceiter_mm_vmscan_kswapd_wake+0x3e>
      7e:	48 83 3b 00          	cmpq   $0x0,(%rbx)
      82:	75 e1                	jne    65 <__traceiter_mm_vmscan_kswapd_wake+0x25>
      84:	5b                   	pop    %rbx
      85:	31 c0                	xor    %eax,%eax
      87:	41 5c                	pop    %r12
      89:	41 5d                	pop    %r13
      8b:	41 5e                	pop    %r14
      8d:	5d                   	pop    %rbp
      8e:	c3                   	ret    
      8f:	90                   	nop

0000000000000090 <__traceiter_mm_vmscan_wakeup_kswapd>:
	TP_printk("nid=%d order=%d",
		__entry->nid,
		__entry->order)
);

TRACE_EVENT(mm_vmscan_wakeup_kswapd,
      90:	e8 00 00 00 00       	call   95 <__traceiter_mm_vmscan_wakeup_kswapd+0x5>
      95:	55                   	push   %rbp
      96:	48 89 e5             	mov    %rsp,%rbp
      99:	41 57                	push   %r15
      9b:	41 56                	push   %r14
      9d:	41 55                	push   %r13
      9f:	41 54                	push   %r12
      a1:	53                   	push   %rbx
      a2:	48 8b 1d 00 00 00 00 	mov    0x0(%rip),%rbx        # a9 <__traceiter_mm_vmscan_wakeup_kswapd+0x19>
      a9:	48 85 db             	test   %rbx,%rbx
      ac:	74 2e                	je     dc <__traceiter_mm_vmscan_wakeup_kswapd+0x4c>
      ae:	41 89 f6             	mov    %esi,%r14d
      b1:	41 89 d5             	mov    %edx,%r13d
      b4:	41 89 cc             	mov    %ecx,%r12d
      b7:	45 89 c7             	mov    %r8d,%r15d
      ba:	48 8b 03             	mov    (%rbx),%rax
      bd:	48 8b 7b 08          	mov    0x8(%rbx),%rdi
      c1:	48 83 c3 18          	add    $0x18,%rbx
      c5:	45 89 f8             	mov    %r15d,%r8d
      c8:	44 89 e1             	mov    %r12d,%ecx
      cb:	44 89 ea             	mov    %r13d,%edx
      ce:	44 89 f6             	mov    %r14d,%esi
      d1:	e8 00 00 00 00       	call   d6 <__traceiter_mm_vmscan_wakeup_kswapd+0x46>
      d6:	48 83 3b 00          	cmpq   $0x0,(%rbx)
      da:	75 de                	jne    ba <__traceiter_mm_vmscan_wakeup_kswapd+0x2a>
      dc:	5b                   	pop    %rbx
      dd:	31 c0                	xor    %eax,%eax
      df:	41 5c                	pop    %r12
      e1:	41 5d                	pop    %r13
      e3:	41 5e                	pop    %r14
      e5:	41 5f                	pop    %r15
      e7:	5d                   	pop    %rbp
      e8:	c3                   	ret    
      e9:	0f 1f 80 00 00 00 00 	nopl   0x0(%rax)

00000000000000f0 <__traceiter_mm_vmscan_direct_reclaim_begin>:
	TP_printk("order=%d gfp_flags=%s",
		__entry->order,
		show_gfp_flags(__entry->gfp_flags))
);

DEFINE_EVENT(mm_vmscan_direct_reclaim_begin_template, mm_vmscan_direct_reclaim_begin,
      f0:	e8 00 00 00 00       	call   f5 <__traceiter_mm_vmscan_direct_reclaim_begin+0x5>
      f5:	55                   	push   %rbp
      f6:	48 89 e5             	mov    %rsp,%rbp
      f9:	41 55                	push   %r13
      fb:	41 54                	push   %r12
      fd:	53                   	push   %rbx
      fe:	48 8b 1d 00 00 00 00 	mov    0x0(%rip),%rbx        # 105 <__traceiter_mm_vmscan_direct_reclaim_begin+0x15>
     105:	48 85 db             	test   %rbx,%rbx
     108:	74 22                	je     12c <__traceiter_mm_vmscan_direct_reclaim_begin+0x3c>
     10a:	41 89 f5             	mov    %esi,%r13d
     10d:	41 89 d4             	mov    %edx,%r12d
     110:	48 8b 03             	mov    (%rbx),%rax
     113:	48 8b 7b 08          	mov    0x8(%rbx),%rdi
     117:	48 83 c3 18          	add    $0x18,%rbx
     11b:	44 89 e2             	mov    %r12d,%edx
     11e:	44 89 ee             	mov    %r13d,%esi
     121:	e8 00 00 00 00       	call   126 <__traceiter_mm_vmscan_direct_reclaim_begin+0x36>
     126:	48 83 3b 00          	cmpq   $0x0,(%rbx)
     12a:	75 e4                	jne    110 <__traceiter_mm_vmscan_direct_reclaim_begin+0x20>
     12c:	5b                   	pop    %rbx
     12d:	31 c0                	xor    %eax,%eax
     12f:	41 5c                	pop    %r12
     131:	41 5d                	pop    %r13
     133:	5d                   	pop    %rbp
     134:	c3                   	ret    
     135:	66 66 2e 0f 1f 84 00 	data16 cs nopw 0x0(%rax,%rax,1)
     13c:	00 00 00 00 

0000000000000140 <__traceiter_mm_vmscan_memcg_reclaim_begin>:

	TP_ARGS(order, gfp_flags)
);

#ifdef CONFIG_MEMCG
DEFINE_EVENT(mm_vmscan_direct_reclaim_begin_template, mm_vmscan_memcg_reclaim_begin,
     140:	e8 00 00 00 00       	call   145 <__traceiter_mm_vmscan_memcg_reclaim_begin+0x5>
     145:	55                   	push   %rbp
     146:	48 89 e5             	mov    %rsp,%rbp
     149:	41 55                	push   %r13
     14b:	41 54                	push   %r12
     14d:	53                   	push   %rbx
     14e:	48 8b 1d 00 00 00 00 	mov    0x0(%rip),%rbx        # 155 <__traceiter_mm_vmscan_memcg_reclaim_begin+0x15>
     155:	48 85 db             	test   %rbx,%rbx
     158:	74 22                	je     17c <__traceiter_mm_vmscan_memcg_reclaim_begin+0x3c>
     15a:	41 89 f5             	mov    %esi,%r13d
     15d:	41 89 d4             	mov    %edx,%r12d
     160:	48 8b 03             	mov    (%rbx),%rax
     163:	48 8b 7b 08          	mov    0x8(%rbx),%rdi
     167:	48 83 c3 18          	add    $0x18,%rbx
     16b:	44 89 e2             	mov    %r12d,%edx
     16e:	44 89 ee             	mov    %r13d,%esi
     171:	e8 00 00 00 00       	call   176 <__traceiter_mm_vmscan_memcg_reclaim_begin+0x36>
     176:	48 83 3b 00          	cmpq   $0x0,(%rbx)
     17a:	75 e4                	jne    160 <__traceiter_mm_vmscan_memcg_reclaim_begin+0x20>
     17c:	5b                   	pop    %rbx
     17d:	31 c0                	xor    %eax,%eax
     17f:	41 5c                	pop    %r12
     181:	41 5d                	pop    %r13
     183:	5d                   	pop    %rbp
     184:	c3                   	ret    
     185:	66 66 2e 0f 1f 84 00 	data16 cs nopw 0x0(%rax,%rax,1)
     18c:	00 00 00 00 

0000000000000190 <__traceiter_mm_vmscan_memcg_softlimit_reclaim_begin>:
	TP_PROTO(int order, gfp_t gfp_flags),

	TP_ARGS(order, gfp_flags)
);

DEFINE_EVENT(mm_vmscan_direct_reclaim_begin_template, mm_vmscan_memcg_softlimit_reclaim_begin,
     190:	e8 00 00 00 00       	call   195 <__traceiter_mm_vmscan_memcg_softlimit_reclaim_begin+0x5>
     195:	55                   	push   %rbp
     196:	48 89 e5             	mov    %rsp,%rbp
     199:	41 55                	push   %r13
     19b:	41 54                	push   %r12
     19d:	53                   	push   %rbx
     19e:	48 8b 1d 00 00 00 00 	mov    0x0(%rip),%rbx        # 1a5 <__traceiter_mm_vmscan_memcg_softlimit_reclaim_begin+0x15>
     1a5:	48 85 db             	test   %rbx,%rbx
     1a8:	74 22                	je     1cc <__traceiter_mm_vmscan_memcg_softlimit_reclaim_begin+0x3c>
     1aa:	41 89 f5             	mov    %esi,%r13d
     1ad:	41 89 d4             	mov    %edx,%r12d
     1b0:	48 8b 03             	mov    (%rbx),%rax
     1b3:	48 8b 7b 08          	mov    0x8(%rbx),%rdi
     1b7:	48 83 c3 18          	add    $0x18,%rbx
     1bb:	44 89 e2             	mov    %r12d,%edx
     1be:	44 89 ee             	mov    %r13d,%esi
     1c1:	e8 00 00 00 00       	call   1c6 <__traceiter_mm_vmscan_memcg_softlimit_reclaim_begin+0x36>
     1c6:	48 83 3b 00          	cmpq   $0x0,(%rbx)
     1ca:	75 e4                	jne    1b0 <__traceiter_mm_vmscan_memcg_softlimit_reclaim_begin+0x20>
     1cc:	5b                   	pop    %rbx
     1cd:	31 c0                	xor    %eax,%eax
     1cf:	41 5c                	pop    %r12
     1d1:	41 5d                	pop    %r13
     1d3:	5d                   	pop    %rbp
     1d4:	c3                   	ret    
     1d5:	66 66 2e 0f 1f 84 00 	data16 cs nopw 0x0(%rax,%rax,1)
     1dc:	00 00 00 00 

00000000000001e0 <__traceiter_mm_vmscan_direct_reclaim_end>:
	),

	TP_printk("nr_reclaimed=%lu", __entry->nr_reclaimed)
);

DEFINE_EVENT(mm_vmscan_direct_reclaim_end_template, mm_vmscan_direct_reclaim_end,
     1e0:	e8 00 00 00 00       	call   1e5 <__traceiter_mm_vmscan_direct_reclaim_end+0x5>
     1e5:	55                   	push   %rbp
     1e6:	48 89 e5             	mov    %rsp,%rbp
     1e9:	41 54                	push   %r12
     1eb:	53                   	push   %rbx
     1ec:	48 8b 1d 00 00 00 00 	mov    0x0(%rip),%rbx        # 1f3 <__traceiter_mm_vmscan_direct_reclaim_end+0x13>
     1f3:	48 85 db             	test   %rbx,%rbx
     1f6:	74 1c                	je     214 <__traceiter_mm_vmscan_direct_reclaim_end+0x34>
     1f8:	49 89 f4             	mov    %rsi,%r12
     1fb:	48 8b 03             	mov    (%rbx),%rax
     1fe:	48 8b 7b 08          	mov    0x8(%rbx),%rdi
     202:	48 83 c3 18          	add    $0x18,%rbx
     206:	4c 89 e6             	mov    %r12,%rsi
     209:	e8 00 00 00 00       	call   20e <__traceiter_mm_vmscan_direct_reclaim_end+0x2e>
     20e:	48 83 3b 00          	cmpq   $0x0,(%rbx)
     212:	75 e7                	jne    1fb <__traceiter_mm_vmscan_direct_reclaim_end+0x1b>
     214:	5b                   	pop    %rbx
     215:	31 c0                	xor    %eax,%eax
     217:	41 5c                	pop    %r12
     219:	5d                   	pop    %rbp
     21a:	c3                   	ret    
     21b:	0f 1f 44 00 00       	nopl   0x0(%rax,%rax,1)

0000000000000220 <__traceiter_mm_vmscan_memcg_reclaim_end>:

	TP_ARGS(nr_reclaimed)
);

#ifdef CONFIG_MEMCG
DEFINE_EVENT(mm_vmscan_direct_reclaim_end_template, mm_vmscan_memcg_reclaim_end,
     220:	e8 00 00 00 00       	call   225 <__traceiter_mm_vmscan_memcg_reclaim_end+0x5>
     225:	55                   	push   %rbp
     226:	48 89 e5             	mov    %rsp,%rbp
     229:	41 54                	push   %r12
     22b:	53                   	push   %rbx
     22c:	48 8b 1d 00 00 00 00 	mov    0x0(%rip),%rbx        # 233 <__traceiter_mm_vmscan_memcg_reclaim_end+0x13>
     233:	48 85 db             	test   %rbx,%rbx
     236:	74 1c                	je     254 <__traceiter_mm_vmscan_memcg_reclaim_end+0x34>
     238:	49 89 f4             	mov    %rsi,%r12
     23b:	48 8b 03             	mov    (%rbx),%rax
     23e:	48 8b 7b 08          	mov    0x8(%rbx),%rdi
     242:	48 83 c3 18          	add    $0x18,%rbx
     246:	4c 89 e6             	mov    %r12,%rsi
     249:	e8 00 00 00 00       	call   24e <__traceiter_mm_vmscan_memcg_reclaim_end+0x2e>
     24e:	48 83 3b 00          	cmpq   $0x0,(%rbx)
     252:	75 e7                	jne    23b <__traceiter_mm_vmscan_memcg_reclaim_end+0x1b>
     254:	5b                   	pop    %rbx
     255:	31 c0                	xor    %eax,%eax
     257:	41 5c                	pop    %r12
     259:	5d                   	pop    %rbp
     25a:	c3                   	ret    
     25b:	0f 1f 44 00 00       	nopl   0x0(%rax,%rax,1)

0000000000000260 <__traceiter_mm_vmscan_memcg_softlimit_reclaim_end>:
	TP_PROTO(unsigned long nr_reclaimed),

	TP_ARGS(nr_reclaimed)
);

DEFINE_EVENT(mm_vmscan_direct_reclaim_end_template, mm_vmscan_memcg_softlimit_reclaim_end,
     260:	e8 00 00 00 00       	call   265 <__traceiter_mm_vmscan_memcg_softlimit_reclaim_end+0x5>
     265:	55                   	push   %rbp
     266:	48 89 e5             	mov    %rsp,%rbp
     269:	41 54                	push   %r12
     26b:	53                   	push   %rbx
     26c:	48 8b 1d 00 00 00 00 	mov    0x0(%rip),%rbx        # 273 <__traceiter_mm_vmscan_memcg_softlimit_reclaim_end+0x13>
     273:	48 85 db             	test   %rbx,%rbx
     276:	74 1c                	je     294 <__traceiter_mm_vmscan_memcg_softlimit_reclaim_end+0x34>
     278:	49 89 f4             	mov    %rsi,%r12
     27b:	48 8b 03             	mov    (%rbx),%rax
     27e:	48 8b 7b 08          	mov    0x8(%rbx),%rdi
     282:	48 83 c3 18          	add    $0x18,%rbx
     286:	4c 89 e6             	mov    %r12,%rsi
     289:	e8 00 00 00 00       	call   28e <__traceiter_mm_vmscan_memcg_softlimit_reclaim_end+0x2e>
     28e:	48 83 3b 00          	cmpq   $0x0,(%rbx)
     292:	75 e7                	jne    27b <__traceiter_mm_vmscan_memcg_softlimit_reclaim_end+0x1b>
     294:	5b                   	pop    %rbx
     295:	31 c0                	xor    %eax,%eax
     297:	41 5c                	pop    %r12
     299:	5d                   	pop    %rbp
     29a:	c3                   	ret    
     29b:	0f 1f 44 00 00       	nopl   0x0(%rax,%rax,1)

00000000000002a0 <__traceiter_mm_shrink_slab_start>:

	TP_ARGS(nr_reclaimed)
);
#endif /* CONFIG_MEMCG */

TRACE_EVENT(mm_shrink_slab_start,
     2a0:	e8 00 00 00 00       	call   2a5 <__traceiter_mm_shrink_slab_start+0x5>
     2a5:	55                   	push   %rbp
     2a6:	48 89 e5             	mov    %rsp,%rbp
     2a9:	41 57                	push   %r15
     2ab:	41 56                	push   %r14
     2ad:	41 55                	push   %r13
     2af:	41 54                	push   %r12
     2b1:	53                   	push   %rbx
     2b2:	48 83 ec 08          	sub    $0x8,%rsp
     2b6:	4c 8b 35 00 00 00 00 	mov    0x0(%rip),%r14        # 2bd <__traceiter_mm_shrink_slab_start+0x1d>
     2bd:	4d 85 f6             	test   %r14,%r14
     2c0:	74 3f                	je     301 <__traceiter_mm_shrink_slab_start+0x61>
     2c2:	49 89 f5             	mov    %rsi,%r13
     2c5:	49 89 d4             	mov    %rdx,%r12
     2c8:	48 89 cb             	mov    %rcx,%rbx
     2cb:	4d 89 c7             	mov    %r8,%r15
     2ce:	8b 45 18             	mov    0x18(%rbp),%eax
     2d1:	4d 8b 16             	mov    (%r14),%r10
     2d4:	49 83 c6 18          	add    $0x18,%r14
     2d8:	4c 89 4d d0          	mov    %r9,-0x30(%rbp)
     2dc:	49 8b 7e f0          	mov    -0x10(%r14),%rdi
     2e0:	4c 89 e2             	mov    %r12,%rdx
     2e3:	4d 89 f8             	mov    %r15,%r8
     2e6:	48 89 d9             	mov    %rbx,%rcx
     2e9:	50                   	push   %rax
     2ea:	4c 89 ee             	mov    %r13,%rsi
     2ed:	ff 75 10             	push   0x10(%rbp)
     2f0:	e8 00 00 00 00       	call   2f5 <__traceiter_mm_shrink_slab_start+0x55>
     2f5:	49 83 3e 00          	cmpq   $0x0,(%r14)
     2f9:	58                   	pop    %rax
     2fa:	4c 8b 4d d0          	mov    -0x30(%rbp),%r9
     2fe:	5a                   	pop    %rdx
     2ff:	75 cd                	jne    2ce <__traceiter_mm_shrink_slab_start+0x2e>
     301:	48 8d 65 d8          	lea    -0x28(%rbp),%rsp
     305:	31 c0                	xor    %eax,%eax
     307:	5b                   	pop    %rbx
     308:	41 5c                	pop    %r12
     30a:	41 5d                	pop    %r13
     30c:	41 5e                	pop    %r14
     30e:	41 5f                	pop    %r15
     310:	5d                   	pop    %rbp
     311:	c3                   	ret    
     312:	66 66 2e 0f 1f 84 00 	data16 cs nopw 0x0(%rax,%rax,1)
     319:	00 00 00 00 
     31d:	0f 1f 00             	nopl   (%rax)

0000000000000320 <__traceiter_mm_shrink_slab_end>:
		__entry->delta,
		__entry->total_scan,
		__entry->priority)
);

TRACE_EVENT(mm_shrink_slab_end,
     320:	e8 00 00 00 00       	call   325 <__traceiter_mm_shrink_slab_end+0x5>
     325:	55                   	push   %rbp
     326:	48 89 e5             	mov    %rsp,%rbp
     329:	41 57                	push   %r15
     32b:	41 56                	push   %r14
     32d:	41 55                	push   %r13
     32f:	41 54                	push   %r12
     331:	53                   	push   %rbx
     332:	48 83 ec 08          	sub    $0x8,%rsp
     336:	48 8b 1d 00 00 00 00 	mov    0x0(%rip),%rbx        # 33d <__traceiter_mm_shrink_slab_end+0x1d>
     33d:	48 85 db             	test   %rbx,%rbx
     340:	74 3a                	je     37c <__traceiter_mm_shrink_slab_end+0x5c>
     342:	49 89 f6             	mov    %rsi,%r14
     345:	41 89 d5             	mov    %edx,%r13d
     348:	41 89 cc             	mov    %ecx,%r12d
     34b:	4d 89 cf             	mov    %r9,%r15
     34e:	48 8b 03             	mov    (%rbx),%rax
     351:	48 8b 7b 08          	mov    0x8(%rbx),%rdi
     355:	48 83 c3 18          	add    $0x18,%rbx
     359:	ff 75 10             	push   0x10(%rbp)
     35c:	4c 89 45 d0          	mov    %r8,-0x30(%rbp)
     360:	4d 89 f9             	mov    %r15,%r9
     363:	44 89 e1             	mov    %r12d,%ecx
     366:	44 89 ea             	mov    %r13d,%edx
     369:	4c 89 f6             	mov    %r14,%rsi
     36c:	e8 00 00 00 00       	call   371 <__traceiter_mm_shrink_slab_end+0x51>
     371:	48 83 3b 00          	cmpq   $0x0,(%rbx)
     375:	4c 8b 45 d0          	mov    -0x30(%rbp),%r8
     379:	58                   	pop    %rax
     37a:	75 d2                	jne    34e <__traceiter_mm_shrink_slab_end+0x2e>
     37c:	48 8d 65 d8          	lea    -0x28(%rbp),%rsp
     380:	31 c0                	xor    %eax,%eax
     382:	5b                   	pop    %rbx
     383:	41 5c                	pop    %r12
     385:	41 5d                	pop    %r13
     387:	41 5e                	pop    %r14
     389:	41 5f                	pop    %r15
     38b:	5d                   	pop    %rbp
     38c:	c3                   	ret    
     38d:	0f 1f 00             	nopl   (%rax)

0000000000000390 <__traceiter_mm_vmscan_lru_isolate>:
		__entry->new_scan,
		__entry->total_scan,
		__entry->retval)
);

TRACE_EVENT(mm_vmscan_lru_isolate,
     390:	e8 00 00 00 00       	call   395 <__traceiter_mm_vmscan_lru_isolate+0x5>
     395:	55                   	push   %rbp
     396:	48 89 e5             	mov    %rsp,%rbp
     399:	41 57                	push   %r15
     39b:	41 56                	push   %r14
     39d:	41 55                	push   %r13
     39f:	41 54                	push   %r12
     3a1:	53                   	push   %rbx
     3a2:	48 83 ec 08          	sub    $0x8,%rsp
     3a6:	4c 8b 35 00 00 00 00 	mov    0x0(%rip),%r14        # 3ad <__traceiter_mm_vmscan_lru_isolate+0x1d>
     3ad:	4d 85 f6             	test   %r14,%r14
     3b0:	74 4a                	je     3fc <__traceiter_mm_vmscan_lru_isolate+0x6c>
     3b2:	4d 89 f5             	mov    %r14,%r13
     3b5:	41 89 d4             	mov    %edx,%r12d
     3b8:	48 89 cb             	mov    %rcx,%rbx
     3bb:	4d 89 c7             	mov    %r8,%r15
     3be:	41 89 f6             	mov    %esi,%r14d
     3c1:	8b 45 20             	mov    0x20(%rbp),%eax
     3c4:	4d 8b 55 00          	mov    0x0(%r13),%r10
     3c8:	4c 89 4d d0          	mov    %r9,-0x30(%rbp)
     3cc:	4d 89 f8             	mov    %r15,%r8
     3cf:	49 8b 7d 08          	mov    0x8(%r13),%rdi
     3d3:	48 89 d9             	mov    %rbx,%rcx
     3d6:	44 89 e2             	mov    %r12d,%edx
     3d9:	44 89 f6             	mov    %r14d,%esi
     3dc:	50                   	push   %rax
     3dd:	8b 45 18             	mov    0x18(%rbp),%eax
     3e0:	49 83 c5 18          	add    $0x18,%r13
     3e4:	50                   	push   %rax
     3e5:	ff 75 10             	push   0x10(%rbp)
     3e8:	e8 00 00 00 00       	call   3ed <__traceiter_mm_vmscan_lru_isolate+0x5d>
     3ed:	4c 8b 4d d0          	mov    -0x30(%rbp),%r9
     3f1:	48 83 c4 18          	add    $0x18,%rsp
     3f5:	49 83 7d 00 00       	cmpq   $0x0,0x0(%r13)
     3fa:	75 c5                	jne    3c1 <__traceiter_mm_vmscan_lru_isolate+0x31>
     3fc:	48 8d 65 d8          	lea    -0x28(%rbp),%rsp
     400:	31 c0                	xor    %eax,%eax
     402:	5b                   	pop    %rbx
     403:	41 5c                	pop    %r12
     405:	41 5d                	pop    %r13
     407:	41 5e                	pop    %r14
     409:	41 5f                	pop    %r15
     40b:	5d                   	pop    %rbp
     40c:	c3                   	ret    
     40d:	0f 1f 00             	nopl   (%rax)

0000000000000410 <__traceiter_mm_vmscan_writepage>:
		__entry->nr_skipped,
		__entry->nr_taken,
		__print_symbolic(__entry->lru, LRU_NAMES))
);

TRACE_EVENT(mm_vmscan_writepage,
     410:	e8 00 00 00 00       	call   415 <__traceiter_mm_vmscan_writepage+0x5>
     415:	55                   	push   %rbp
     416:	48 89 e5             	mov    %rsp,%rbp
     419:	41 54                	push   %r12
     41b:	53                   	push   %rbx
     41c:	48 8b 1d 00 00 00 00 	mov    0x0(%rip),%rbx        # 423 <__traceiter_mm_vmscan_writepage+0x13>
     423:	48 85 db             	test   %rbx,%rbx
     426:	74 1c                	je     444 <__traceiter_mm_vmscan_writepage+0x34>
     428:	49 89 f4             	mov    %rsi,%r12
     42b:	48 8b 03             	mov    (%rbx),%rax
     42e:	48 8b 7b 08          	mov    0x8(%rbx),%rdi
     432:	48 83 c3 18          	add    $0x18,%rbx
     436:	4c 89 e6             	mov    %r12,%rsi
     439:	e8 00 00 00 00       	call   43e <__traceiter_mm_vmscan_writepage+0x2e>
     43e:	48 83 3b 00          	cmpq   $0x0,(%rbx)
     442:	75 e7                	jne    42b <__traceiter_mm_vmscan_writepage+0x1b>
     444:	5b                   	pop    %rbx
     445:	31 c0                	xor    %eax,%eax
     447:	41 5c                	pop    %r12
     449:	5d                   	pop    %rbp
     44a:	c3                   	ret    
     44b:	0f 1f 44 00 00       	nopl   0x0(%rax,%rax,1)

0000000000000450 <__traceiter_mm_vmscan_lru_shrink_inactive>:
		pfn_to_page(__entry->pfn),
		__entry->pfn,
		show_reclaim_flags(__entry->reclaim_flags))
);

TRACE_EVENT(mm_vmscan_lru_shrink_inactive,
     450:	e8 00 00 00 00       	call   455 <__traceiter_mm_vmscan_lru_shrink_inactive+0x5>
     455:	55                   	push   %rbp
     456:	48 89 e5             	mov    %rsp,%rbp
     459:	41 57                	push   %r15
     45b:	41 56                	push   %r14
     45d:	41 55                	push   %r13
     45f:	41 54                	push   %r12
     461:	53                   	push   %rbx
     462:	48 83 ec 08          	sub    $0x8,%rsp
     466:	48 8b 1d 00 00 00 00 	mov    0x0(%rip),%rbx        # 46d <__traceiter_mm_vmscan_lru_shrink_inactive+0x1d>
     46d:	48 85 db             	test   %rbx,%rbx
     470:	74 3b                	je     4ad <__traceiter_mm_vmscan_lru_shrink_inactive+0x5d>
     472:	41 89 f6             	mov    %esi,%r14d
     475:	49 89 d5             	mov    %rdx,%r13
     478:	49 89 cc             	mov    %rcx,%r12
     47b:	45 89 cf             	mov    %r9d,%r15d
     47e:	8b 55 10             	mov    0x10(%rbp),%edx
     481:	48 8b 03             	mov    (%rbx),%rax
     484:	48 83 c3 18          	add    $0x18,%rbx
     488:	4c 89 45 d0          	mov    %r8,-0x30(%rbp)
     48c:	48 8b 7b f0          	mov    -0x10(%rbx),%rdi
     490:	45 89 f9             	mov    %r15d,%r9d
     493:	4c 89 e1             	mov    %r12,%rcx
     496:	44 89 f6             	mov    %r14d,%esi
     499:	52                   	push   %rdx
     49a:	4c 89 ea             	mov    %r13,%rdx
     49d:	e8 00 00 00 00       	call   4a2 <__traceiter_mm_vmscan_lru_shrink_inactive+0x52>
     4a2:	48 83 3b 00          	cmpq   $0x0,(%rbx)
     4a6:	4c 8b 45 d0          	mov    -0x30(%rbp),%r8
     4aa:	58                   	pop    %rax
     4ab:	75 d1                	jne    47e <__traceiter_mm_vmscan_lru_shrink_inactive+0x2e>
     4ad:	48 8d 65 d8          	lea    -0x28(%rbp),%rsp
     4b1:	31 c0                	xor    %eax,%eax
     4b3:	5b                   	pop    %rbx
     4b4:	41 5c                	pop    %r12
     4b6:	41 5d                	pop    %r13
     4b8:	41 5e                	pop    %r14
     4ba:	41 5f                	pop    %r15
     4bc:	5d                   	pop    %rbp
     4bd:	c3                   	ret    
     4be:	66 90                	xchg   %ax,%ax

00000000000004c0 <__traceiter_mm_vmscan_lru_shrink_active>:
		__entry->nr_ref_keep, __entry->nr_unmap_fail,
		__entry->priority,
		show_reclaim_flags(__entry->reclaim_flags))
);

TRACE_EVENT(mm_vmscan_lru_shrink_active,
     4c0:	e8 00 00 00 00       	call   4c5 <__traceiter_mm_vmscan_lru_shrink_active+0x5>
     4c5:	55                   	push   %rbp
     4c6:	48 89 e5             	mov    %rsp,%rbp
     4c9:	41 57                	push   %r15
     4cb:	41 56                	push   %r14
     4cd:	41 55                	push   %r13
     4cf:	41 54                	push   %r12
     4d1:	53                   	push   %rbx
     4d2:	48 83 ec 08          	sub    $0x8,%rsp
     4d6:	4c 8b 35 00 00 00 00 	mov    0x0(%rip),%r14        # 4dd <__traceiter_mm_vmscan_lru_shrink_active+0x1d>
     4dd:	4d 85 f6             	test   %r14,%r14
     4e0:	74 40                	je     522 <__traceiter_mm_vmscan_lru_shrink_active+0x62>
     4e2:	41 89 f5             	mov    %esi,%r13d
     4e5:	49 89 d4             	mov    %rdx,%r12
     4e8:	48 89 cb             	mov    %rcx,%rbx
     4eb:	4d 89 c7             	mov    %r8,%r15
     4ee:	8b 45 18             	mov    0x18(%rbp),%eax
     4f1:	4d 8b 16             	mov    (%r14),%r10
     4f4:	49 83 c6 18          	add    $0x18,%r14
     4f8:	4c 89 4d d0          	mov    %r9,-0x30(%rbp)
     4fc:	49 8b 7e f0          	mov    -0x10(%r14),%rdi
     500:	4c 89 e2             	mov    %r12,%rdx
     503:	4d 89 f8             	mov    %r15,%r8
     506:	48 89 d9             	mov    %rbx,%rcx
     509:	50                   	push   %rax
     50a:	8b 45 10             	mov    0x10(%rbp),%eax
     50d:	44 89 ee             	mov    %r13d,%esi
     510:	50                   	push   %rax
     511:	e8 00 00 00 00       	call   516 <__traceiter_mm_vmscan_lru_shrink_active+0x56>
     516:	49 83 3e 00          	cmpq   $0x0,(%r14)
     51a:	58                   	pop    %rax
     51b:	4c 8b 4d d0          	mov    -0x30(%rbp),%r9
     51f:	5a                   	pop    %rdx
     520:	75 cc                	jne    4ee <__traceiter_mm_vmscan_lru_shrink_active+0x2e>
     522:	48 8d 65 d8          	lea    -0x28(%rbp),%rsp
     526:	31 c0                	xor    %eax,%eax
     528:	5b                   	pop    %rbx
     529:	41 5c                	pop    %r12
     52b:	41 5d                	pop    %r13
     52d:	41 5e                	pop    %r14
     52f:	41 5f                	pop    %r15
     531:	5d                   	pop    %rbp
     532:	c3                   	ret    
     533:	66 66 2e 0f 1f 84 00 	data16 cs nopw 0x0(%rax,%rax,1)
     53a:	00 00 00 00 
     53e:	66 90                	xchg   %ax,%ax

0000000000000540 <__traceiter_mm_vmscan_node_reclaim_begin>:
		__entry->nr_active, __entry->nr_deactivated, __entry->nr_referenced,
		__entry->priority,
		show_reclaim_flags(__entry->reclaim_flags))
);

TRACE_EVENT(mm_vmscan_node_reclaim_begin,
     540:	e8 00 00 00 00       	call   545 <__traceiter_mm_vmscan_node_reclaim_begin+0x5>
     545:	55                   	push   %rbp
     546:	48 89 e5             	mov    %rsp,%rbp
     549:	41 56                	push   %r14
     54b:	41 55                	push   %r13
     54d:	41 54                	push   %r12
     54f:	53                   	push   %rbx
     550:	48 8b 1d 00 00 00 00 	mov    0x0(%rip),%rbx        # 557 <__traceiter_mm_vmscan_node_reclaim_begin+0x17>
     557:	48 85 db             	test   %rbx,%rbx
     55a:	74 28                	je     584 <__traceiter_mm_vmscan_node_reclaim_begin+0x44>
     55c:	41 89 f6             	mov    %esi,%r14d
     55f:	41 89 d5             	mov    %edx,%r13d
     562:	41 89 cc             	mov    %ecx,%r12d
     565:	48 8b 03             	mov    (%rbx),%rax
     568:	48 8b 7b 08          	mov    0x8(%rbx),%rdi
     56c:	48 83 c3 18          	add    $0x18,%rbx
     570:	44 89 e1             	mov    %r12d,%ecx
     573:	44 89 ea             	mov    %r13d,%edx
     576:	44 89 f6             	mov    %r14d,%esi
     579:	e8 00 00 00 00       	call   57e <__traceiter_mm_vmscan_node_reclaim_begin+0x3e>
     57e:	48 83 3b 00          	cmpq   $0x0,(%rbx)
     582:	75 e1                	jne    565 <__traceiter_mm_vmscan_node_reclaim_begin+0x25>
     584:	5b                   	pop    %rbx
     585:	31 c0                	xor    %eax,%eax
     587:	41 5c                	pop    %r12
     589:	41 5d                	pop    %r13
     58b:	41 5e                	pop    %r14
     58d:	5d                   	pop    %rbp
     58e:	c3                   	ret    
     58f:	90                   	nop

0000000000000590 <__traceiter_mm_vmscan_node_reclaim_end>:
		__entry->nid,
		__entry->order,
		show_gfp_flags(__entry->gfp_flags))
);

DEFINE_EVENT(mm_vmscan_direct_reclaim_end_template, mm_vmscan_node_reclaim_end,
     590:	e8 00 00 00 00       	call   595 <__traceiter_mm_vmscan_node_reclaim_end+0x5>
     595:	55                   	push   %rbp
     596:	48 89 e5             	mov    %rsp,%rbp
     599:	41 54                	push   %r12
     59b:	53                   	push   %rbx
     59c:	48 8b 1d 00 00 00 00 	mov    0x0(%rip),%rbx        # 5a3 <__traceiter_mm_vmscan_node_reclaim_end+0x13>
     5a3:	48 85 db             	test   %rbx,%rbx
     5a6:	74 1c                	je     5c4 <__traceiter_mm_vmscan_node_reclaim_end+0x34>
     5a8:	49 89 f4             	mov    %rsi,%r12
     5ab:	48 8b 03             	mov    (%rbx),%rax
     5ae:	48 8b 7b 08          	mov    0x8(%rbx),%rdi
     5b2:	48 83 c3 18          	add    $0x18,%rbx
     5b6:	4c 89 e6             	mov    %r12,%rsi
     5b9:	e8 00 00 00 00       	call   5be <__traceiter_mm_vmscan_node_reclaim_end+0x2e>
     5be:	48 83 3b 00          	cmpq   $0x0,(%rbx)
     5c2:	75 e7                	jne    5ab <__traceiter_mm_vmscan_node_reclaim_end+0x1b>
     5c4:	5b                   	pop    %rbx
     5c5:	31 c0                	xor    %eax,%eax
     5c7:	41 5c                	pop    %r12
     5c9:	5d                   	pop    %rbp
     5ca:	c3                   	ret    
     5cb:	0f 1f 44 00 00       	nopl   0x0(%rax,%rax,1)

00000000000005d0 <perf_trace_mm_vmscan_kswapd_sleep>:
TRACE_EVENT(mm_vmscan_kswapd_sleep,
     5d0:	55                   	push   %rbp
     5d1:	48 89 e5             	mov    %rsp,%rbp
     5d4:	41 55                	push   %r13
     5d6:	41 89 f5             	mov    %esi,%r13d
     5d9:	41 54                	push   %r12
     5db:	49 89 fc             	mov    %rdi,%r12
     5de:	53                   	push   %rbx
     5df:	48 83 ec 18          	sub    $0x18,%rsp
     5e3:	48 8b 5f 78          	mov    0x78(%rdi),%rbx
     5e7:	65 48 8b 04 25 28 00 	mov    %gs:0x28,%rax
     5ee:	00 00 
     5f0:	48 89 45 e0          	mov    %rax,-0x20(%rbp)
     5f4:	31 c0                	xor    %eax,%eax
     5f6:	65 48 03 1d 00 00 00 	add    %gs:0x0(%rip),%rbx        # 5fe <perf_trace_mm_vmscan_kswapd_sleep+0x2e>
     5fd:	00 
	 * Here, READ_ONCE() is used instead of rcu_access_pointer().
	 * rcu_access_pointer() requires the actual definition of
	 * "struct bpf_prog_array" while READ_ONCE() only needs
	 * a declaration of the same type.
	 */
	return !!READ_ONCE(call->prog_array);
     5fe:	48 8b 87 80 00 00 00 	mov    0x80(%rdi),%rax
     605:	48 85 c0             	test   %rax,%rax
     608:	74 7f                	je     689 <perf_trace_mm_vmscan_kswapd_sleep+0xb9>
     60a:	bf 0c 00 00 00       	mov    $0xc,%edi
     60f:	48 8d 55 d4          	lea    -0x2c(%rbp),%rdx
     613:	48 8d 75 d8          	lea    -0x28(%rbp),%rsi
     617:	e8 00 00 00 00       	call   61c <perf_trace_mm_vmscan_kswapd_sleep+0x4c>
     61c:	48 89 c7             	mov    %rax,%rdi
     61f:	48 85 c0             	test   %rax,%rax
     622:	74 4b                	je     66f <perf_trace_mm_vmscan_kswapd_sleep+0x9f>
 * NOTE: assumes @regs is otherwise already 0 filled; this is important for
 * things like PERF_SAMPLE_REGS_INTR.
 */
static inline void perf_fetch_caller_regs(struct pt_regs *regs)
{
	perf_arch_fetch_caller_regs(regs, CALLER_ADDR0);
     624:	48 8b 45 08          	mov    0x8(%rbp),%rax
     628:	4c 8b 4d d8          	mov    -0x28(%rbp),%r9
     62c:	4c 89 e1             	mov    %r12,%rcx
     62f:	be 0c 00 00 00       	mov    $0xc,%esi
     634:	8b 55 d4             	mov    -0x2c(%rbp),%edx
     637:	41 b8 01 00 00 00    	mov    $0x1,%r8d
     63d:	49 89 81 80 00 00 00 	mov    %rax,0x80(%r9)
     644:	49 89 a9 98 00 00 00 	mov    %rbp,0x98(%r9)
     64b:	49 c7 81 88 00 00 00 	movq   $0x10,0x88(%r9)
     652:	10 00 00 00 
     656:	49 c7 81 90 00 00 00 	movq   $0x0,0x90(%r9)
     65d:	00 00 00 00 
     661:	44 89 6f 08          	mov    %r13d,0x8(%rdi)
     665:	6a 00                	push   $0x0
     667:	53                   	push   %rbx
     668:	e8 00 00 00 00       	call   66d <perf_trace_mm_vmscan_kswapd_sleep+0x9d>
     66d:	58                   	pop    %rax
     66e:	5a                   	pop    %rdx
     66f:	48 8b 45 e0          	mov    -0x20(%rbp),%rax
     673:	65 48 2b 04 25 28 00 	sub    %gs:0x28,%rax
     67a:	00 00 
     67c:	75 19                	jne    697 <perf_trace_mm_vmscan_kswapd_sleep+0xc7>
     67e:	48 8d 65 e8          	lea    -0x18(%rbp),%rsp
     682:	5b                   	pop    %rbx
     683:	41 5c                	pop    %r12
     685:	41 5d                	pop    %r13
     687:	5d                   	pop    %rbp
     688:	c3                   	ret    
 * hlist_empty - Is the specified hlist_head structure an empty hlist?
 * @h: Structure to check.
 */
static inline int hlist_empty(const struct hlist_head *h)
{
	return !READ_ONCE(h->first);
     689:	48 8b 03             	mov    (%rbx),%rax
     68c:	48 85 c0             	test   %rax,%rax
     68f:	0f 85 75 ff ff ff    	jne    60a <perf_trace_mm_vmscan_kswapd_sleep+0x3a>
     695:	eb d8                	jmp    66f <perf_trace_mm_vmscan_kswapd_sleep+0x9f>
     697:	e8 00 00 00 00       	call   69c <perf_trace_mm_vmscan_kswapd_sleep+0xcc>
     69c:	0f 1f 40 00          	nopl   0x0(%rax)

00000000000006a0 <perf_trace_mm_vmscan_kswapd_wake>:
TRACE_EVENT(mm_vmscan_kswapd_wake,
     6a0:	55                   	push   %rbp
     6a1:	48 89 e5             	mov    %rsp,%rbp
     6a4:	41 57                	push   %r15
     6a6:	49 89 ff             	mov    %rdi,%r15
     6a9:	41 56                	push   %r14
     6ab:	41 55                	push   %r13
     6ad:	41 89 f5             	mov    %esi,%r13d
     6b0:	41 54                	push   %r12
     6b2:	41 89 d4             	mov    %edx,%r12d
     6b5:	53                   	push   %rbx
     6b6:	89 cb                	mov    %ecx,%ebx
     6b8:	48 83 ec 18          	sub    $0x18,%rsp
     6bc:	4c 8b 77 78          	mov    0x78(%rdi),%r14
     6c0:	65 48 8b 04 25 28 00 	mov    %gs:0x28,%rax
     6c7:	00 00 
     6c9:	48 89 45 d0          	mov    %rax,-0x30(%rbp)
     6cd:	31 c0                	xor    %eax,%eax
     6cf:	65 4c 03 35 00 00 00 	add    %gs:0x0(%rip),%r14        # 6d7 <perf_trace_mm_vmscan_kswapd_wake+0x37>
     6d6:	00 
     6d7:	48 8b 87 80 00 00 00 	mov    0x80(%rdi),%rax
     6de:	48 85 c0             	test   %rax,%rax
     6e1:	0f 84 8b 00 00 00    	je     772 <perf_trace_mm_vmscan_kswapd_wake+0xd2>
     6e7:	bf 14 00 00 00       	mov    $0x14,%edi
     6ec:	48 8d 55 c4          	lea    -0x3c(%rbp),%rdx
     6f0:	48 8d 75 c8          	lea    -0x38(%rbp),%rsi
     6f4:	e8 00 00 00 00       	call   6f9 <perf_trace_mm_vmscan_kswapd_wake+0x59>
     6f9:	48 89 c7             	mov    %rax,%rdi
     6fc:	48 85 c0             	test   %rax,%rax
     6ff:	74 53                	je     754 <perf_trace_mm_vmscan_kswapd_wake+0xb4>
     701:	48 8b 45 08          	mov    0x8(%rbp),%rax
     705:	4c 8b 4d c8          	mov    -0x38(%rbp),%r9
     709:	4c 89 f9             	mov    %r15,%rcx
     70c:	be 14 00 00 00       	mov    $0x14,%esi
     711:	8b 55 c4             	mov    -0x3c(%rbp),%edx
     714:	41 b8 01 00 00 00    	mov    $0x1,%r8d
     71a:	49 89 81 80 00 00 00 	mov    %rax,0x80(%r9)
     721:	49 89 a9 98 00 00 00 	mov    %rbp,0x98(%r9)
     728:	49 c7 81 88 00 00 00 	movq   $0x10,0x88(%r9)
     72f:	10 00 00 00 
     733:	49 c7 81 90 00 00 00 	movq   $0x0,0x90(%r9)
     73a:	00 00 00 00 
     73e:	44 89 6f 08          	mov    %r13d,0x8(%rdi)
     742:	44 89 67 0c          	mov    %r12d,0xc(%rdi)
     746:	89 5f 10             	mov    %ebx,0x10(%rdi)
     749:	6a 00                	push   $0x0
     74b:	41 56                	push   %r14
     74d:	e8 00 00 00 00       	call   752 <perf_trace_mm_vmscan_kswapd_wake+0xb2>
     752:	58                   	pop    %rax
     753:	5a                   	pop    %rdx
     754:	48 8b 45 d0          	mov    -0x30(%rbp),%rax
     758:	65 48 2b 04 25 28 00 	sub    %gs:0x28,%rax
     75f:	00 00 
     761:	75 1d                	jne    780 <perf_trace_mm_vmscan_kswapd_wake+0xe0>
     763:	48 8d 65 d8          	lea    -0x28(%rbp),%rsp
     767:	5b                   	pop    %rbx
     768:	41 5c                	pop    %r12
     76a:	41 5d                	pop    %r13
     76c:	41 5e                	pop    %r14
     76e:	41 5f                	pop    %r15
     770:	5d                   	pop    %rbp
     771:	c3                   	ret    
     772:	49 8b 06             	mov    (%r14),%rax
     775:	48 85 c0             	test   %rax,%rax
     778:	0f 85 69 ff ff ff    	jne    6e7 <perf_trace_mm_vmscan_kswapd_wake+0x47>
     77e:	eb d4                	jmp    754 <perf_trace_mm_vmscan_kswapd_wake+0xb4>
     780:	e8 00 00 00 00       	call   785 <perf_trace_mm_vmscan_kswapd_wake+0xe5>
     785:	66 66 2e 0f 1f 84 00 	data16 cs nopw 0x0(%rax,%rax,1)
     78c:	00 00 00 00 

0000000000000790 <perf_trace_mm_vmscan_wakeup_kswapd>:
TRACE_EVENT(mm_vmscan_wakeup_kswapd,
     790:	55                   	push   %rbp
     791:	48 89 e5             	mov    %rsp,%rbp
     794:	41 57                	push   %r15
     796:	49 89 ff             	mov    %rdi,%r15
     799:	41 56                	push   %r14
     79b:	41 89 f6             	mov    %esi,%r14d
     79e:	41 55                	push   %r13
     7a0:	41 89 d5             	mov    %edx,%r13d
     7a3:	41 54                	push   %r12
     7a5:	41 89 cc             	mov    %ecx,%r12d
     7a8:	53                   	push   %rbx
     7a9:	48 83 ec 20          	sub    $0x20,%rsp
     7ad:	44 89 45 bc          	mov    %r8d,-0x44(%rbp)
     7b1:	48 8b 5f 78          	mov    0x78(%rdi),%rbx
     7b5:	65 48 8b 04 25 28 00 	mov    %gs:0x28,%rax
     7bc:	00 00 
     7be:	48 89 45 d0          	mov    %rax,-0x30(%rbp)
     7c2:	31 c0                	xor    %eax,%eax
     7c4:	65 48 03 1d 00 00 00 	add    %gs:0x0(%rip),%rbx        # 7cc <perf_trace_mm_vmscan_wakeup_kswapd+0x3c>
     7cb:	00 
     7cc:	48 8b 87 80 00 00 00 	mov    0x80(%rdi),%rax
     7d3:	48 85 c0             	test   %rax,%rax
     7d6:	0f 84 91 00 00 00    	je     86d <perf_trace_mm_vmscan_wakeup_kswapd+0xdd>
     7dc:	bf 1c 00 00 00       	mov    $0x1c,%edi
     7e1:	48 8d 55 c4          	lea    -0x3c(%rbp),%rdx
     7e5:	48 8d 75 c8          	lea    -0x38(%rbp),%rsi
     7e9:	e8 00 00 00 00       	call   7ee <perf_trace_mm_vmscan_wakeup_kswapd+0x5e>
     7ee:	48 89 c7             	mov    %rax,%rdi
     7f1:	48 85 c0             	test   %rax,%rax
     7f4:	74 59                	je     84f <perf_trace_mm_vmscan_wakeup_kswapd+0xbf>
     7f6:	48 8b 45 08          	mov    0x8(%rbp),%rax
     7fa:	4c 8b 4d c8          	mov    -0x38(%rbp),%r9
     7fe:	4c 89 f9             	mov    %r15,%rcx
     801:	be 1c 00 00 00       	mov    $0x1c,%esi
     806:	8b 55 c4             	mov    -0x3c(%rbp),%edx
     809:	41 b8 01 00 00 00    	mov    $0x1,%r8d
     80f:	49 89 81 80 00 00 00 	mov    %rax,0x80(%r9)
     816:	8b 45 bc             	mov    -0x44(%rbp),%eax
     819:	49 89 a9 98 00 00 00 	mov    %rbp,0x98(%r9)
     820:	49 c7 81 88 00 00 00 	movq   $0x10,0x88(%r9)
     827:	10 00 00 00 
     82b:	49 c7 81 90 00 00 00 	movq   $0x0,0x90(%r9)
     832:	00 00 00 00 
     836:	89 47 14             	mov    %eax,0x14(%rdi)
     839:	44 89 77 08          	mov    %r14d,0x8(%rdi)
     83d:	44 89 6f 0c          	mov    %r13d,0xc(%rdi)
     841:	44 89 67 10          	mov    %r12d,0x10(%rdi)
     845:	6a 00                	push   $0x0
     847:	53                   	push   %rbx
     848:	e8 00 00 00 00       	call   84d <perf_trace_mm_vmscan_wakeup_kswapd+0xbd>
     84d:	58                   	pop    %rax
     84e:	5a                   	pop    %rdx
     84f:	48 8b 45 d0          	mov    -0x30(%rbp),%rax
     853:	65 48 2b 04 25 28 00 	sub    %gs:0x28,%rax
     85a:	00 00 
     85c:	75 1d                	jne    87b <perf_trace_mm_vmscan_wakeup_kswapd+0xeb>
     85e:	48 8d 65 d8          	lea    -0x28(%rbp),%rsp
     862:	5b                   	pop    %rbx
     863:	41 5c                	pop    %r12
     865:	41 5d                	pop    %r13
     867:	41 5e                	pop    %r14
     869:	41 5f                	pop    %r15
     86b:	5d                   	pop    %rbp
     86c:	c3                   	ret    
     86d:	48 8b 03             	mov    (%rbx),%rax
     870:	48 85 c0             	test   %rax,%rax
     873:	0f 85 63 ff ff ff    	jne    7dc <perf_trace_mm_vmscan_wakeup_kswapd+0x4c>
     879:	eb d4                	jmp    84f <perf_trace_mm_vmscan_wakeup_kswapd+0xbf>
     87b:	e8 00 00 00 00       	call   880 <perf_trace_mm_vmscan_direct_reclaim_begin_template>

0000000000000880 <perf_trace_mm_vmscan_direct_reclaim_begin_template>:
DECLARE_EVENT_CLASS(mm_vmscan_direct_reclaim_begin_template,
     880:	55                   	push   %rbp
     881:	48 89 e5             	mov    %rsp,%rbp
     884:	41 56                	push   %r14
     886:	41 89 f6             	mov    %esi,%r14d
     889:	41 55                	push   %r13
     88b:	41 89 d5             	mov    %edx,%r13d
     88e:	41 54                	push   %r12
     890:	49 89 fc             	mov    %rdi,%r12
     893:	53                   	push   %rbx
     894:	48 83 ec 18          	sub    $0x18,%rsp
     898:	48 8b 5f 78          	mov    0x78(%rdi),%rbx
     89c:	65 48 8b 04 25 28 00 	mov    %gs:0x28,%rax
     8a3:	00 00 
     8a5:	48 89 45 d8          	mov    %rax,-0x28(%rbp)
     8a9:	31 c0                	xor    %eax,%eax
     8ab:	65 48 03 1d 00 00 00 	add    %gs:0x0(%rip),%rbx        # 8b3 <perf_trace_mm_vmscan_direct_reclaim_begin_template+0x33>
     8b2:	00 
     8b3:	48 8b 87 80 00 00 00 	mov    0x80(%rdi),%rax
     8ba:	48 85 c0             	test   %rax,%rax
     8bd:	0f 84 85 00 00 00    	je     948 <perf_trace_mm_vmscan_direct_reclaim_begin_template+0xc8>
     8c3:	bf 14 00 00 00       	mov    $0x14,%edi
     8c8:	48 8d 55 cc          	lea    -0x34(%rbp),%rdx
     8cc:	48 8d 75 d0          	lea    -0x30(%rbp),%rsi
     8d0:	e8 00 00 00 00       	call   8d5 <perf_trace_mm_vmscan_direct_reclaim_begin_template+0x55>
     8d5:	48 89 c7             	mov    %rax,%rdi
     8d8:	48 85 c0             	test   %rax,%rax
     8db:	74 4f                	je     92c <perf_trace_mm_vmscan_direct_reclaim_begin_template+0xac>
     8dd:	48 8b 45 08          	mov    0x8(%rbp),%rax
     8e1:	4c 8b 4d d0          	mov    -0x30(%rbp),%r9
     8e5:	4c 89 e1             	mov    %r12,%rcx
     8e8:	be 14 00 00 00       	mov    $0x14,%esi
     8ed:	8b 55 cc             	mov    -0x34(%rbp),%edx
     8f0:	41 b8 01 00 00 00    	mov    $0x1,%r8d
     8f6:	49 89 81 80 00 00 00 	mov    %rax,0x80(%r9)
     8fd:	49 89 a9 98 00 00 00 	mov    %rbp,0x98(%r9)
     904:	49 c7 81 88 00 00 00 	movq   $0x10,0x88(%r9)
     90b:	10 00 00 00 
     90f:	49 c7 81 90 00 00 00 	movq   $0x0,0x90(%r9)
     916:	00 00 00 00 
     91a:	44 89 77 08          	mov    %r14d,0x8(%rdi)
     91e:	44 89 6f 0c          	mov    %r13d,0xc(%rdi)
     922:	6a 00                	push   $0x0
     924:	53                   	push   %rbx
     925:	e8 00 00 00 00       	call   92a <perf_trace_mm_vmscan_direct_reclaim_begin_template+0xaa>
     92a:	58                   	pop    %rax
     92b:	5a                   	pop    %rdx
     92c:	48 8b 45 d8          	mov    -0x28(%rbp),%rax
     930:	65 48 2b 04 25 28 00 	sub    %gs:0x28,%rax
     937:	00 00 
     939:	75 1b                	jne    956 <perf_trace_mm_vmscan_direct_reclaim_begin_template+0xd6>
     93b:	48 8d 65 e0          	lea    -0x20(%rbp),%rsp
     93f:	5b                   	pop    %rbx
     940:	41 5c                	pop    %r12
     942:	41 5d                	pop    %r13
     944:	41 5e                	pop    %r14
     946:	5d                   	pop    %rbp
     947:	c3                   	ret    
     948:	48 8b 03             	mov    (%rbx),%rax
     94b:	48 85 c0             	test   %rax,%rax
     94e:	0f 85 6f ff ff ff    	jne    8c3 <perf_trace_mm_vmscan_direct_reclaim_begin_template+0x43>
     954:	eb d6                	jmp    92c <perf_trace_mm_vmscan_direct_reclaim_begin_template+0xac>
     956:	e8 00 00 00 00       	call   95b <perf_trace_mm_vmscan_direct_reclaim_begin_template+0xdb>
     95b:	0f 1f 44 00 00       	nopl   0x0(%rax,%rax,1)

0000000000000960 <perf_trace_mm_vmscan_direct_reclaim_end_template>:
DECLARE_EVENT_CLASS(mm_vmscan_direct_reclaim_end_template,
     960:	55                   	push   %rbp
     961:	48 89 e5             	mov    %rsp,%rbp
     964:	41 55                	push   %r13
     966:	49 89 f5             	mov    %rsi,%r13
     969:	41 54                	push   %r12
     96b:	49 89 fc             	mov    %rdi,%r12
     96e:	53                   	push   %rbx
     96f:	48 83 ec 18          	sub    $0x18,%rsp
     973:	48 8b 5f 78          	mov    0x78(%rdi),%rbx
     977:	65 48 8b 04 25 28 00 	mov    %gs:0x28,%rax
     97e:	00 00 
     980:	48 89 45 e0          	mov    %rax,-0x20(%rbp)
     984:	31 c0                	xor    %eax,%eax
     986:	65 48 03 1d 00 00 00 	add    %gs:0x0(%rip),%rbx        # 98e <perf_trace_mm_vmscan_direct_reclaim_end_template+0x2e>
     98d:	00 
     98e:	48 8b 87 80 00 00 00 	mov    0x80(%rdi),%rax
     995:	48 85 c0             	test   %rax,%rax
     998:	74 7f                	je     a19 <perf_trace_mm_vmscan_direct_reclaim_end_template+0xb9>
     99a:	bf 14 00 00 00       	mov    $0x14,%edi
     99f:	48 8d 55 d4          	lea    -0x2c(%rbp),%rdx
     9a3:	48 8d 75 d8          	lea    -0x28(%rbp),%rsi
     9a7:	e8 00 00 00 00       	call   9ac <perf_trace_mm_vmscan_direct_reclaim_end_template+0x4c>
     9ac:	48 89 c7             	mov    %rax,%rdi
     9af:	48 85 c0             	test   %rax,%rax
     9b2:	74 4b                	je     9ff <perf_trace_mm_vmscan_direct_reclaim_end_template+0x9f>
     9b4:	48 8b 45 08          	mov    0x8(%rbp),%rax
     9b8:	4c 8b 4d d8          	mov    -0x28(%rbp),%r9
     9bc:	4c 89 e1             	mov    %r12,%rcx
     9bf:	be 14 00 00 00       	mov    $0x14,%esi
     9c4:	8b 55 d4             	mov    -0x2c(%rbp),%edx
     9c7:	41 b8 01 00 00 00    	mov    $0x1,%r8d
     9cd:	49 89 81 80 00 00 00 	mov    %rax,0x80(%r9)
     9d4:	49 89 a9 98 00 00 00 	mov    %rbp,0x98(%r9)
     9db:	49 c7 81 88 00 00 00 	movq   $0x10,0x88(%r9)
     9e2:	10 00 00 00 
     9e6:	49 c7 81 90 00 00 00 	movq   $0x0,0x90(%r9)
     9ed:	00 00 00 00 
     9f1:	4c 89 6f 08          	mov    %r13,0x8(%rdi)
     9f5:	6a 00                	push   $0x0
     9f7:	53                   	push   %rbx
     9f8:	e8 00 00 00 00       	call   9fd <perf_trace_mm_vmscan_direct_reclaim_end_template+0x9d>
     9fd:	58                   	pop    %rax
     9fe:	5a                   	pop    %rdx
     9ff:	48 8b 45 e0          	mov    -0x20(%rbp),%rax
     a03:	65 48 2b 04 25 28 00 	sub    %gs:0x28,%rax
     a0a:	00 00 
     a0c:	75 19                	jne    a27 <perf_trace_mm_vmscan_direct_reclaim_end_template+0xc7>
     a0e:	48 8d 65 e8          	lea    -0x18(%rbp),%rsp
     a12:	5b                   	pop    %rbx
     a13:	41 5c                	pop    %r12
     a15:	41 5d                	pop    %r13
     a17:	5d                   	pop    %rbp
     a18:	c3                   	ret    
     a19:	48 8b 03             	mov    (%rbx),%rax
     a1c:	48 85 c0             	test   %rax,%rax
     a1f:	0f 85 75 ff ff ff    	jne    99a <perf_trace_mm_vmscan_direct_reclaim_end_template+0x3a>
     a25:	eb d8                	jmp    9ff <perf_trace_mm_vmscan_direct_reclaim_end_template+0x9f>
     a27:	e8 00 00 00 00       	call   a2c <perf_trace_mm_vmscan_direct_reclaim_end_template+0xcc>
     a2c:	0f 1f 40 00          	nopl   0x0(%rax)

0000000000000a30 <perf_trace_mm_shrink_slab_start>:
TRACE_EVENT(mm_shrink_slab_start,
     a30:	55                   	push   %rbp
     a31:	48 89 e5             	mov    %rsp,%rbp
     a34:	41 57                	push   %r15
     a36:	49 89 d7             	mov    %rdx,%r15
     a39:	41 56                	push   %r14
     a3b:	49 89 ce             	mov    %rcx,%r14
     a3e:	41 55                	push   %r13
     a40:	49 89 f5             	mov    %rsi,%r13
     a43:	41 54                	push   %r12
     a45:	49 89 fc             	mov    %rdi,%r12
     a48:	53                   	push   %rbx
     a49:	48 83 ec 28          	sub    $0x28,%rsp
     a4d:	4c 89 45 b8          	mov    %r8,-0x48(%rbp)
     a51:	48 8b 5f 78          	mov    0x78(%rdi),%rbx
     a55:	4c 89 4d b0          	mov    %r9,-0x50(%rbp)
     a59:	65 48 8b 04 25 28 00 	mov    %gs:0x28,%rax
     a60:	00 00 
     a62:	48 89 45 d0          	mov    %rax,-0x30(%rbp)
     a66:	31 c0                	xor    %eax,%eax
     a68:	65 48 03 1d 00 00 00 	add    %gs:0x0(%rip),%rbx        # a70 <perf_trace_mm_shrink_slab_start+0x40>
     a6f:	00 
     a70:	48 8b 87 80 00 00 00 	mov    0x80(%rdi),%rax
     a77:	48 85 c0             	test   %rax,%rax
     a7a:	0f 84 be 00 00 00    	je     b3e <perf_trace_mm_shrink_slab_start+0x10e>
     a80:	bf 54 00 00 00       	mov    $0x54,%edi
     a85:	48 8d 55 c4          	lea    -0x3c(%rbp),%rdx
     a89:	48 8d 75 c8          	lea    -0x38(%rbp),%rsi
     a8d:	e8 00 00 00 00       	call   a92 <perf_trace_mm_shrink_slab_start+0x62>
     a92:	48 89 c7             	mov    %rax,%rdi
     a95:	48 85 c0             	test   %rax,%rax
     a98:	0f 84 82 00 00 00    	je     b20 <perf_trace_mm_shrink_slab_start+0xf0>
     a9e:	48 8b 45 08          	mov    0x8(%rbp),%rax
     aa2:	4c 8b 4d c8          	mov    -0x38(%rbp),%r9
     aa6:	4c 89 e1             	mov    %r12,%rcx
     aa9:	be 54 00 00 00       	mov    $0x54,%esi
     aae:	8b 55 c4             	mov    -0x3c(%rbp),%edx
     ab1:	41 b8 01 00 00 00    	mov    $0x1,%r8d
     ab7:	49 89 81 80 00 00 00 	mov    %rax,0x80(%r9)
     abe:	49 89 a9 98 00 00 00 	mov    %rbp,0x98(%r9)
     ac5:	49 c7 81 88 00 00 00 	movq   $0x10,0x88(%r9)
     acc:	10 00 00 00 
     ad0:	49 c7 81 90 00 00 00 	movq   $0x0,0x90(%r9)
     ad7:	00 00 00 00 
     adb:	4c 89 6f 08          	mov    %r13,0x8(%rdi)
     adf:	49 8b 45 08          	mov    0x8(%r13),%rax
     ae3:	48 89 47 10          	mov    %rax,0x10(%rdi)
     ae7:	41 8b 47 04          	mov    0x4(%r15),%eax
     aeb:	4c 89 77 20          	mov    %r14,0x20(%rdi)
     aef:	89 47 18             	mov    %eax,0x18(%rdi)
     af2:	41 8b 07             	mov    (%r15),%eax
     af5:	89 47 28             	mov    %eax,0x28(%rdi)
     af8:	48 8b 45 b8          	mov    -0x48(%rbp),%rax
     afc:	48 89 47 30          	mov    %rax,0x30(%rdi)
     b00:	48 8b 45 b0          	mov    -0x50(%rbp),%rax
     b04:	48 89 47 38          	mov    %rax,0x38(%rdi)
     b08:	48 8b 45 10          	mov    0x10(%rbp),%rax
     b0c:	48 89 47 40          	mov    %rax,0x40(%rdi)
     b10:	8b 45 18             	mov    0x18(%rbp),%eax
     b13:	89 47 48             	mov    %eax,0x48(%rdi)
     b16:	6a 00                	push   $0x0
     b18:	53                   	push   %rbx
     b19:	e8 00 00 00 00       	call   b1e <perf_trace_mm_shrink_slab_start+0xee>
     b1e:	58                   	pop    %rax
     b1f:	5a                   	pop    %rdx
     b20:	48 8b 45 d0          	mov    -0x30(%rbp),%rax
     b24:	65 48 2b 04 25 28 00 	sub    %gs:0x28,%rax
     b2b:	00 00 
     b2d:	75 1d                	jne    b4c <perf_trace_mm_shrink_slab_start+0x11c>
     b2f:	48 8d 65 d8          	lea    -0x28(%rbp),%rsp
     b33:	5b                   	pop    %rbx
     b34:	41 5c                	pop    %r12
     b36:	41 5d                	pop    %r13
     b38:	41 5e                	pop    %r14
     b3a:	41 5f                	pop    %r15
     b3c:	5d                   	pop    %rbp
     b3d:	c3                   	ret    
     b3e:	48 8b 03             	mov    (%rbx),%rax
     b41:	48 85 c0             	test   %rax,%rax
     b44:	0f 85 36 ff ff ff    	jne    a80 <perf_trace_mm_shrink_slab_start+0x50>
     b4a:	eb d4                	jmp    b20 <perf_trace_mm_shrink_slab_start+0xf0>
     b4c:	e8 00 00 00 00       	call   b51 <perf_trace_mm_shrink_slab_start+0x121>
     b51:	66 66 2e 0f 1f 84 00 	data16 cs nopw 0x0(%rax,%rax,1)
     b58:	00 00 00 00 
     b5c:	0f 1f 40 00          	nopl   0x0(%rax)

0000000000000b60 <perf_trace_mm_shrink_slab_end>:
TRACE_EVENT(mm_shrink_slab_end,
     b60:	55                   	push   %rbp
     b61:	48 89 e5             	mov    %rsp,%rbp
     b64:	41 57                	push   %r15
     b66:	49 89 ff             	mov    %rdi,%r15
     b69:	41 56                	push   %r14
     b6b:	41 89 d6             	mov    %edx,%r14d
     b6e:	41 55                	push   %r13
     b70:	4d 89 c5             	mov    %r8,%r13
     b73:	41 54                	push   %r12
     b75:	49 89 f4             	mov    %rsi,%r12
     b78:	53                   	push   %rbx
     b79:	48 83 ec 28          	sub    $0x28,%rsp
     b7d:	89 4d bc             	mov    %ecx,-0x44(%rbp)
     b80:	48 8b 5f 78          	mov    0x78(%rdi),%rbx
     b84:	4c 89 4d b0          	mov    %r9,-0x50(%rbp)
     b88:	65 48 8b 04 25 28 00 	mov    %gs:0x28,%rax
     b8f:	00 00 
     b91:	48 89 45 d0          	mov    %rax,-0x30(%rbp)
     b95:	31 c0                	xor    %eax,%eax
     b97:	65 48 03 1d 00 00 00 	add    %gs:0x0(%rip),%rbx        # b9f <perf_trace_mm_shrink_slab_end+0x3f>
     b9e:	00 
     b9f:	48 8b 87 80 00 00 00 	mov    0x80(%rdi),%rax
     ba6:	48 85 c0             	test   %rax,%rax
     ba9:	0f 84 aa 00 00 00    	je     c59 <perf_trace_mm_shrink_slab_end+0xf9>
     baf:	bf 44 00 00 00       	mov    $0x44,%edi
     bb4:	48 8d 55 c4          	lea    -0x3c(%rbp),%rdx
     bb8:	48 8d 75 c8          	lea    -0x38(%rbp),%rsi
     bbc:	e8 00 00 00 00       	call   bc1 <perf_trace_mm_shrink_slab_end+0x61>
     bc1:	48 89 c7             	mov    %rax,%rdi
     bc4:	48 85 c0             	test   %rax,%rax
     bc7:	74 72                	je     c3b <perf_trace_mm_shrink_slab_end+0xdb>
     bc9:	48 8b 45 08          	mov    0x8(%rbp),%rax
     bcd:	4c 8b 4d c8          	mov    -0x38(%rbp),%r9
     bd1:	4c 89 f9             	mov    %r15,%rcx
     bd4:	be 44 00 00 00       	mov    $0x44,%esi
     bd9:	8b 55 c4             	mov    -0x3c(%rbp),%edx
     bdc:	41 b8 01 00 00 00    	mov    $0x1,%r8d
     be2:	49 89 81 80 00 00 00 	mov    %rax,0x80(%r9)
     be9:	49 89 a9 98 00 00 00 	mov    %rbp,0x98(%r9)
     bf0:	49 c7 81 88 00 00 00 	movq   $0x10,0x88(%r9)
     bf7:	10 00 00 00 
     bfb:	49 c7 81 90 00 00 00 	movq   $0x0,0x90(%r9)
     c02:	00 00 00 00 
     c06:	4c 89 67 08          	mov    %r12,0x8(%rdi)
     c0a:	44 89 77 10          	mov    %r14d,0x10(%rdi)
     c0e:	49 8b 44 24 08       	mov    0x8(%r12),%rax
     c13:	4c 89 6f 20          	mov    %r13,0x20(%rdi)
     c17:	48 89 47 18          	mov    %rax,0x18(%rdi)
     c1b:	48 8b 45 b0          	mov    -0x50(%rbp),%rax
     c1f:	48 89 47 28          	mov    %rax,0x28(%rdi)
     c23:	8b 45 bc             	mov    -0x44(%rbp),%eax
     c26:	89 47 30             	mov    %eax,0x30(%rdi)
     c29:	48 8b 45 10          	mov    0x10(%rbp),%rax
     c2d:	48 89 47 38          	mov    %rax,0x38(%rdi)
     c31:	6a 00                	push   $0x0
     c33:	53                   	push   %rbx
     c34:	e8 00 00 00 00       	call   c39 <perf_trace_mm_shrink_slab_end+0xd9>
     c39:	58                   	pop    %rax
     c3a:	5a                   	pop    %rdx
     c3b:	48 8b 45 d0          	mov    -0x30(%rbp),%rax
     c3f:	65 48 2b 04 25 28 00 	sub    %gs:0x28,%rax
     c46:	00 00 
     c48:	75 1d                	jne    c67 <perf_trace_mm_shrink_slab_end+0x107>
     c4a:	48 8d 65 d8          	lea    -0x28(%rbp),%rsp
     c4e:	5b                   	pop    %rbx
     c4f:	41 5c                	pop    %r12
     c51:	41 5d                	pop    %r13
     c53:	41 5e                	pop    %r14
     c55:	41 5f                	pop    %r15
     c57:	5d                   	pop    %rbp
     c58:	c3                   	ret    
     c59:	48 8b 03             	mov    (%rbx),%rax
     c5c:	48 85 c0             	test   %rax,%rax
     c5f:	0f 85 4a ff ff ff    	jne    baf <perf_trace_mm_shrink_slab_end+0x4f>
     c65:	eb d4                	jmp    c3b <perf_trace_mm_shrink_slab_end+0xdb>
     c67:	e8 00 00 00 00       	call   c6c <perf_trace_mm_shrink_slab_end+0x10c>
     c6c:	0f 1f 40 00          	nopl   0x0(%rax)

0000000000000c70 <perf_trace_mm_vmscan_lru_isolate>:
TRACE_EVENT(mm_vmscan_lru_isolate,
     c70:	55                   	push   %rbp
     c71:	48 89 e5             	mov    %rsp,%rbp
     c74:	41 57                	push   %r15
     c76:	41 89 f7             	mov    %esi,%r15d
     c79:	41 56                	push   %r14
     c7b:	41 89 d6             	mov    %edx,%r14d
     c7e:	41 55                	push   %r13
     c80:	49 89 cd             	mov    %rcx,%r13
     c83:	41 54                	push   %r12
     c85:	49 89 fc             	mov    %rdi,%r12
     c88:	53                   	push   %rbx
     c89:	48 83 ec 28          	sub    $0x28,%rsp
     c8d:	4c 89 45 b8          	mov    %r8,-0x48(%rbp)
     c91:	48 8b 5f 78          	mov    0x78(%rdi),%rbx
     c95:	4c 89 4d b0          	mov    %r9,-0x50(%rbp)
     c99:	65 48 8b 04 25 28 00 	mov    %gs:0x28,%rax
     ca0:	00 00 
     ca2:	48 89 45 d0          	mov    %rax,-0x30(%rbp)
     ca6:	31 c0                	xor    %eax,%eax
     ca8:	65 48 03 1d 00 00 00 	add    %gs:0x0(%rip),%rbx        # cb0 <perf_trace_mm_vmscan_lru_isolate+0x40>
     caf:	00 
     cb0:	48 8b 87 80 00 00 00 	mov    0x80(%rdi),%rax
     cb7:	48 85 c0             	test   %rax,%rax
     cba:	0f 84 af 00 00 00    	je     d6f <perf_trace_mm_vmscan_lru_isolate+0xff>
     cc0:	bf 3c 00 00 00       	mov    $0x3c,%edi
     cc5:	48 8d 55 c4          	lea    -0x3c(%rbp),%rdx
     cc9:	48 8d 75 c8          	lea    -0x38(%rbp),%rsi
     ccd:	e8 00 00 00 00       	call   cd2 <perf_trace_mm_vmscan_lru_isolate+0x62>
     cd2:	48 89 c7             	mov    %rax,%rdi
     cd5:	48 85 c0             	test   %rax,%rax
     cd8:	74 77                	je     d51 <perf_trace_mm_vmscan_lru_isolate+0xe1>
     cda:	48 8b 45 08          	mov    0x8(%rbp),%rax
     cde:	4c 8b 4d c8          	mov    -0x38(%rbp),%r9
     ce2:	4c 89 e1             	mov    %r12,%rcx
     ce5:	be 3c 00 00 00       	mov    $0x3c,%esi
     cea:	8b 55 c4             	mov    -0x3c(%rbp),%edx
     ced:	41 b8 01 00 00 00    	mov    $0x1,%r8d
     cf3:	49 89 81 80 00 00 00 	mov    %rax,0x80(%r9)
     cfa:	48 8b 45 b8          	mov    -0x48(%rbp),%rax
     cfe:	49 89 a9 98 00 00 00 	mov    %rbp,0x98(%r9)
     d05:	49 c7 81 88 00 00 00 	movq   $0x10,0x88(%r9)
     d0c:	10 00 00 00 
     d10:	49 c7 81 90 00 00 00 	movq   $0x0,0x90(%r9)
     d17:	00 00 00 00 
     d1b:	48 89 47 18          	mov    %rax,0x18(%rdi)
     d1f:	48 8b 45 b0          	mov    -0x50(%rbp),%rax
     d23:	44 89 7f 08          	mov    %r15d,0x8(%rdi)
     d27:	48 89 47 20          	mov    %rax,0x20(%rdi)
     d2b:	48 8b 45 10          	mov    0x10(%rbp),%rax
     d2f:	44 89 77 0c          	mov    %r14d,0xc(%rdi)
     d33:	48 89 47 28          	mov    %rax,0x28(%rdi)
     d37:	8b 45 18             	mov    0x18(%rbp),%eax
     d3a:	4c 89 6f 10          	mov    %r13,0x10(%rdi)
     d3e:	89 47 30             	mov    %eax,0x30(%rdi)
     d41:	8b 45 20             	mov    0x20(%rbp),%eax
     d44:	89 47 34             	mov    %eax,0x34(%rdi)
     d47:	6a 00                	push   $0x0
     d49:	53                   	push   %rbx
     d4a:	e8 00 00 00 00       	call   d4f <perf_trace_mm_vmscan_lru_isolate+0xdf>
     d4f:	58                   	pop    %rax
     d50:	5a                   	pop    %rdx
     d51:	48 8b 45 d0          	mov    -0x30(%rbp),%rax
     d55:	65 48 2b 04 25 28 00 	sub    %gs:0x28,%rax
     d5c:	00 00 
     d5e:	75 1d                	jne    d7d <perf_trace_mm_vmscan_lru_isolate+0x10d>
     d60:	48 8d 65 d8          	lea    -0x28(%rbp),%rsp
     d64:	5b                   	pop    %rbx
     d65:	41 5c                	pop    %r12
     d67:	41 5d                	pop    %r13
     d69:	41 5e                	pop    %r14
     d6b:	41 5f                	pop    %r15
     d6d:	5d                   	pop    %rbp
     d6e:	c3                   	ret    
     d6f:	48 8b 03             	mov    (%rbx),%rax
     d72:	48 85 c0             	test   %rax,%rax
     d75:	0f 85 45 ff ff ff    	jne    cc0 <perf_trace_mm_vmscan_lru_isolate+0x50>
     d7b:	eb d4                	jmp    d51 <perf_trace_mm_vmscan_lru_isolate+0xe1>
     d7d:	e8 00 00 00 00       	call   d82 <perf_trace_mm_vmscan_lru_isolate+0x112>
     d82:	66 66 2e 0f 1f 84 00 	data16 cs nopw 0x0(%rax,%rax,1)
     d89:	00 00 00 00 
     d8d:	0f 1f 00             	nopl   (%rax)

0000000000000d90 <perf_trace_mm_vmscan_lru_shrink_inactive>:
TRACE_EVENT(mm_vmscan_lru_shrink_inactive,
     d90:	55                   	push   %rbp
     d91:	48 89 e5             	mov    %rsp,%rbp
     d94:	41 57                	push   %r15
     d96:	4d 89 c7             	mov    %r8,%r15
     d99:	41 56                	push   %r14
     d9b:	41 89 f6             	mov    %esi,%r14d
     d9e:	41 55                	push   %r13
     da0:	49 89 d5             	mov    %rdx,%r13
     da3:	41 54                	push   %r12
     da5:	49 89 fc             	mov    %rdi,%r12
     da8:	53                   	push   %rbx
     da9:	48 83 ec 28          	sub    $0x28,%rsp
     dad:	48 89 4d b8          	mov    %rcx,-0x48(%rbp)
     db1:	48 8b 5f 78          	mov    0x78(%rdi),%rbx
     db5:	44 89 4d b4          	mov    %r9d,-0x4c(%rbp)
     db9:	65 48 8b 04 25 28 00 	mov    %gs:0x28,%rax
     dc0:	00 00 
     dc2:	48 89 45 d0          	mov    %rax,-0x30(%rbp)
     dc6:	31 c0                	xor    %eax,%eax
     dc8:	65 48 03 1d 00 00 00 	add    %gs:0x0(%rip),%rbx        # dd0 <perf_trace_mm_vmscan_lru_shrink_inactive+0x40>
     dcf:	00 
     dd0:	48 8b 87 80 00 00 00 	mov    0x80(%rdi),%rax
     dd7:	48 85 c0             	test   %rax,%rax
     dda:	0f 84 e5 00 00 00    	je     ec5 <perf_trace_mm_vmscan_lru_shrink_inactive+0x135>
     de0:	bf 64 00 00 00       	mov    $0x64,%edi
     de5:	48 8d 55 c4          	lea    -0x3c(%rbp),%rdx
     de9:	48 8d 75 c8          	lea    -0x38(%rbp),%rsi
     ded:	e8 00 00 00 00       	call   df2 <perf_trace_mm_vmscan_lru_shrink_inactive+0x62>
     df2:	48 89 c7             	mov    %rax,%rdi
     df5:	48 85 c0             	test   %rax,%rax
     df8:	0f 84 a9 00 00 00    	je     ea7 <perf_trace_mm_vmscan_lru_shrink_inactive+0x117>
     dfe:	48 8b 45 08          	mov    0x8(%rbp),%rax
     e02:	4c 8b 4d c8          	mov    -0x38(%rbp),%r9
     e06:	4c 89 e1             	mov    %r12,%rcx
     e09:	be 64 00 00 00       	mov    $0x64,%esi
     e0e:	83 7d 10 01          	cmpl   $0x1,0x10(%rbp)
     e12:	41 b8 01 00 00 00    	mov    $0x1,%r8d
     e18:	49 89 81 80 00 00 00 	mov    %rax,0x80(%r9)
     e1f:	48 8b 45 b8          	mov    -0x48(%rbp),%rax
     e23:	49 89 a9 98 00 00 00 	mov    %rbp,0x98(%r9)
     e2a:	49 c7 81 88 00 00 00 	movq   $0x10,0x88(%r9)
     e31:	10 00 00 00 
     e35:	49 c7 81 90 00 00 00 	movq   $0x0,0x90(%r9)
     e3c:	00 00 00 00 
     e40:	44 89 77 08          	mov    %r14d,0x8(%rdi)
     e44:	4c 89 6f 10          	mov    %r13,0x10(%rdi)
     e48:	48 89 47 18          	mov    %rax,0x18(%rdi)
     e4c:	41 8b 07             	mov    (%r15),%eax
     e4f:	48 89 47 20          	mov    %rax,0x20(%rdi)
     e53:	41 8b 47 0c          	mov    0xc(%r15),%eax
     e57:	48 89 47 28          	mov    %rax,0x28(%rdi)
     e5b:	41 8b 47 08          	mov    0x8(%r15),%eax
     e5f:	48 89 47 30          	mov    %rax,0x30(%rdi)
     e63:	41 8b 47 10          	mov    0x10(%r15),%eax
     e67:	48 89 47 38          	mov    %rax,0x38(%rdi)
     e6b:	41 8b 47 18          	mov    0x18(%r15),%eax
     e6f:	89 47 40             	mov    %eax,0x40(%rdi)
     e72:	41 8b 47 1c          	mov    0x1c(%r15),%eax
     e76:	89 47 44             	mov    %eax,0x44(%rdi)
     e79:	41 8b 47 20          	mov    0x20(%r15),%eax
     e7d:	48 89 47 48          	mov    %rax,0x48(%rdi)
     e81:	41 8b 47 24          	mov    0x24(%r15),%eax
     e85:	48 89 47 50          	mov    %rax,0x50(%rdi)
     e89:	8b 45 b4             	mov    -0x4c(%rbp),%eax
     e8c:	89 47 58             	mov    %eax,0x58(%rdi)
     e8f:	b8 09 00 00 00       	mov    $0x9,%eax
     e94:	83 d8 ff             	sbb    $0xffffffff,%eax
     e97:	89 47 5c             	mov    %eax,0x5c(%rdi)
     e9a:	6a 00                	push   $0x0
     e9c:	53                   	push   %rbx
     e9d:	8b 55 c4             	mov    -0x3c(%rbp),%edx
     ea0:	e8 00 00 00 00       	call   ea5 <perf_trace_mm_vmscan_lru_shrink_inactive+0x115>
     ea5:	58                   	pop    %rax
     ea6:	5a                   	pop    %rdx
     ea7:	48 8b 45 d0          	mov    -0x30(%rbp),%rax
     eab:	65 48 2b 04 25 28 00 	sub    %gs:0x28,%rax
     eb2:	00 00 
     eb4:	75 1d                	jne    ed3 <perf_trace_mm_vmscan_lru_shrink_inactive+0x143>
     eb6:	48 8d 65 d8          	lea    -0x28(%rbp),%rsp
     eba:	5b                   	pop    %rbx
     ebb:	41 5c                	pop    %r12
     ebd:	41 5d                	pop    %r13
     ebf:	41 5e                	pop    %r14
     ec1:	41 5f                	pop    %r15
     ec3:	5d                   	pop    %rbp
     ec4:	c3                   	ret    
     ec5:	48 8b 03             	mov    (%rbx),%rax
     ec8:	48 85 c0             	test   %rax,%rax
     ecb:	0f 85 0f ff ff ff    	jne    de0 <perf_trace_mm_vmscan_lru_shrink_inactive+0x50>
     ed1:	eb d4                	jmp    ea7 <perf_trace_mm_vmscan_lru_shrink_inactive+0x117>
     ed3:	e8 00 00 00 00       	call   ed8 <perf_trace_mm_vmscan_lru_shrink_inactive+0x148>
     ed8:	0f 1f 84 00 00 00 00 	nopl   0x0(%rax,%rax,1)
     edf:	00 

0000000000000ee0 <perf_trace_mm_vmscan_lru_shrink_active>:
TRACE_EVENT(mm_vmscan_lru_shrink_active,
     ee0:	55                   	push   %rbp
     ee1:	48 89 e5             	mov    %rsp,%rbp
     ee4:	41 57                	push   %r15
     ee6:	41 89 f7             	mov    %esi,%r15d
     ee9:	41 56                	push   %r14
     eeb:	49 89 d6             	mov    %rdx,%r14
     eee:	41 55                	push   %r13
     ef0:	49 89 cd             	mov    %rcx,%r13
     ef3:	41 54                	push   %r12
     ef5:	49 89 fc             	mov    %rdi,%r12
     ef8:	53                   	push   %rbx
     ef9:	48 83 ec 28          	sub    $0x28,%rsp
     efd:	4c 89 45 b8          	mov    %r8,-0x48(%rbp)
     f01:	48 8b 5f 78          	mov    0x78(%rdi),%rbx
     f05:	4c 89 4d b0          	mov    %r9,-0x50(%rbp)
     f09:	65 48 8b 04 25 28 00 	mov    %gs:0x28,%rax
     f10:	00 00 
     f12:	48 89 45 d0          	mov    %rax,-0x30(%rbp)
     f16:	31 c0                	xor    %eax,%eax
     f18:	65 48 03 1d 00 00 00 	add    %gs:0x0(%rip),%rbx        # f20 <perf_trace_mm_vmscan_lru_shrink_active+0x40>
     f1f:	00 
     f20:	48 8b 87 80 00 00 00 	mov    0x80(%rdi),%rax
     f27:	48 85 c0             	test   %rax,%rax
     f2a:	0f 84 b0 00 00 00    	je     fe0 <perf_trace_mm_vmscan_lru_shrink_active+0x100>
     f30:	bf 3c 00 00 00       	mov    $0x3c,%edi
     f35:	48 8d 55 c4          	lea    -0x3c(%rbp),%rdx
     f39:	48 8d 75 c8          	lea    -0x38(%rbp),%rsi
     f3d:	e8 00 00 00 00       	call   f42 <perf_trace_mm_vmscan_lru_shrink_active+0x62>
     f42:	48 89 c7             	mov    %rax,%rdi
     f45:	48 85 c0             	test   %rax,%rax
     f48:	74 78                	je     fc2 <perf_trace_mm_vmscan_lru_shrink_active+0xe2>
     f4a:	48 8b 45 08          	mov    0x8(%rbp),%rax
     f4e:	4c 8b 4d c8          	mov    -0x38(%rbp),%r9
     f52:	4c 89 e1             	mov    %r12,%rcx
     f55:	be 3c 00 00 00       	mov    $0x3c,%esi
     f5a:	83 7d 18 01          	cmpl   $0x1,0x18(%rbp)
     f5e:	8b 55 c4             	mov    -0x3c(%rbp),%edx
     f61:	41 b8 01 00 00 00    	mov    $0x1,%r8d
     f67:	49 89 81 80 00 00 00 	mov    %rax,0x80(%r9)
     f6e:	48 8b 45 b8          	mov    -0x48(%rbp),%rax
     f72:	49 89 a9 98 00 00 00 	mov    %rbp,0x98(%r9)
     f79:	49 c7 81 88 00 00 00 	movq   $0x10,0x88(%r9)
     f80:	10 00 00 00 
     f84:	49 c7 81 90 00 00 00 	movq   $0x0,0x90(%r9)
     f8b:	00 00 00 00 
     f8f:	48 89 47 20          	mov    %rax,0x20(%rdi)
     f93:	48 8b 45 b0          	mov    -0x50(%rbp),%rax
     f97:	44 89 7f 08          	mov    %r15d,0x8(%rdi)
     f9b:	48 89 47 28          	mov    %rax,0x28(%rdi)
     f9f:	8b 45 10             	mov    0x10(%rbp),%eax
     fa2:	4c 89 77 10          	mov    %r14,0x10(%rdi)
     fa6:	89 47 30             	mov    %eax,0x30(%rdi)
     fa9:	b8 09 00 00 00       	mov    $0x9,%eax
     fae:	83 d8 ff             	sbb    $0xffffffff,%eax
     fb1:	4c 89 6f 18          	mov    %r13,0x18(%rdi)
     fb5:	89 47 34             	mov    %eax,0x34(%rdi)
     fb8:	6a 00                	push   $0x0
     fba:	53                   	push   %rbx
     fbb:	e8 00 00 00 00       	call   fc0 <perf_trace_mm_vmscan_lru_shrink_active+0xe0>
     fc0:	58                   	pop    %rax
     fc1:	5a                   	pop    %rdx
     fc2:	48 8b 45 d0          	mov    -0x30(%rbp),%rax
     fc6:	65 48 2b 04 25 28 00 	sub    %gs:0x28,%rax
     fcd:	00 00 
     fcf:	75 1d                	jne    fee <perf_trace_mm_vmscan_lru_shrink_active+0x10e>
     fd1:	48 8d 65 d8          	lea    -0x28(%rbp),%rsp
     fd5:	5b                   	pop    %rbx
     fd6:	41 5c                	pop    %r12
     fd8:	41 5d                	pop    %r13
     fda:	41 5e                	pop    %r14
     fdc:	41 5f                	pop    %r15
     fde:	5d                   	pop    %rbp
     fdf:	c3                   	ret    
     fe0:	48 8b 03             	mov    (%rbx),%rax
     fe3:	48 85 c0             	test   %rax,%rax
     fe6:	0f 85 44 ff ff ff    	jne    f30 <perf_trace_mm_vmscan_lru_shrink_active+0x50>
     fec:	eb d4                	jmp    fc2 <perf_trace_mm_vmscan_lru_shrink_active+0xe2>
     fee:	e8 00 00 00 00       	call   ff3 <perf_trace_mm_vmscan_lru_shrink_active+0x113>
     ff3:	66 66 2e 0f 1f 84 00 	data16 cs nopw 0x0(%rax,%rax,1)
     ffa:	00 00 00 00 
     ffe:	66 90                	xchg   %ax,%ax

0000000000001000 <perf_trace_mm_vmscan_node_reclaim_begin>:
TRACE_EVENT(mm_vmscan_node_reclaim_begin,
    1000:	55                   	push   %rbp
    1001:	48 89 e5             	mov    %rsp,%rbp
    1004:	41 57                	push   %r15
    1006:	49 89 ff             	mov    %rdi,%r15
    1009:	41 56                	push   %r14
    100b:	41 55                	push   %r13
    100d:	41 89 f5             	mov    %esi,%r13d
    1010:	41 54                	push   %r12
    1012:	41 89 d4             	mov    %edx,%r12d
    1015:	53                   	push   %rbx
    1016:	89 cb                	mov    %ecx,%ebx
    1018:	48 83 ec 18          	sub    $0x18,%rsp
    101c:	4c 8b 77 78          	mov    0x78(%rdi),%r14
    1020:	65 48 8b 04 25 28 00 	mov    %gs:0x28,%rax
    1027:	00 00 
    1029:	48 89 45 d0          	mov    %rax,-0x30(%rbp)
    102d:	31 c0                	xor    %eax,%eax
    102f:	65 4c 03 35 00 00 00 	add    %gs:0x0(%rip),%r14        # 1037 <perf_trace_mm_vmscan_node_reclaim_begin+0x37>
    1036:	00 
    1037:	48 8b 87 80 00 00 00 	mov    0x80(%rdi),%rax
    103e:	48 85 c0             	test   %rax,%rax
    1041:	0f 84 8b 00 00 00    	je     10d2 <perf_trace_mm_vmscan_node_reclaim_begin+0xd2>
    1047:	bf 14 00 00 00       	mov    $0x14,%edi
    104c:	48 8d 55 c4          	lea    -0x3c(%rbp),%rdx
    1050:	48 8d 75 c8          	lea    -0x38(%rbp),%rsi
    1054:	e8 00 00 00 00       	call   1059 <perf_trace_mm_vmscan_node_reclaim_begin+0x59>
    1059:	48 89 c7             	mov    %rax,%rdi
    105c:	48 85 c0             	test   %rax,%rax
    105f:	74 53                	je     10b4 <perf_trace_mm_vmscan_node_reclaim_begin+0xb4>
    1061:	48 8b 45 08          	mov    0x8(%rbp),%rax
    1065:	4c 8b 4d c8          	mov    -0x38(%rbp),%r9
    1069:	4c 89 f9             	mov    %r15,%rcx
    106c:	be 14 00 00 00       	mov    $0x14,%esi
    1071:	8b 55 c4             	mov    -0x3c(%rbp),%edx
    1074:	41 b8 01 00 00 00    	mov    $0x1,%r8d
    107a:	49 89 81 80 00 00 00 	mov    %rax,0x80(%r9)
    1081:	49 89 a9 98 00 00 00 	mov    %rbp,0x98(%r9)
    1088:	49 c7 81 88 00 00 00 	movq   $0x10,0x88(%r9)
    108f:	10 00 00 00 
    1093:	49 c7 81 90 00 00 00 	movq   $0x0,0x90(%r9)
    109a:	00 00 00 00 
    109e:	44 89 6f 08          	mov    %r13d,0x8(%rdi)
    10a2:	44 89 67 0c          	mov    %r12d,0xc(%rdi)
    10a6:	89 5f 10             	mov    %ebx,0x10(%rdi)
    10a9:	6a 00                	push   $0x0
    10ab:	41 56                	push   %r14
    10ad:	e8 00 00 00 00       	call   10b2 <perf_trace_mm_vmscan_node_reclaim_begin+0xb2>
    10b2:	58                   	pop    %rax
    10b3:	5a                   	pop    %rdx
    10b4:	48 8b 45 d0          	mov    -0x30(%rbp),%rax
    10b8:	65 48 2b 04 25 28 00 	sub    %gs:0x28,%rax
    10bf:	00 00 
    10c1:	75 1d                	jne    10e0 <perf_trace_mm_vmscan_node_reclaim_begin+0xe0>
    10c3:	48 8d 65 d8          	lea    -0x28(%rbp),%rsp
    10c7:	5b                   	pop    %rbx
    10c8:	41 5c                	pop    %r12
    10ca:	41 5d                	pop    %r13
    10cc:	41 5e                	pop    %r14
    10ce:	41 5f                	pop    %r15
    10d0:	5d                   	pop    %rbp
    10d1:	c3                   	ret    
    10d2:	49 8b 06             	mov    (%r14),%rax
    10d5:	48 85 c0             	test   %rax,%rax
    10d8:	0f 85 69 ff ff ff    	jne    1047 <perf_trace_mm_vmscan_node_reclaim_begin+0x47>
    10de:	eb d4                	jmp    10b4 <perf_trace_mm_vmscan_node_reclaim_begin+0xb4>
    10e0:	e8 00 00 00 00       	call   10e5 <perf_trace_mm_vmscan_node_reclaim_begin+0xe5>
    10e5:	66 66 2e 0f 1f 84 00 	data16 cs nopw 0x0(%rax,%rax,1)
    10ec:	00 00 00 00 

00000000000010f0 <trace_event_raw_event_mm_vmscan_lru_shrink_inactive>:
TRACE_EVENT(mm_vmscan_lru_shrink_inactive,
    10f0:	55                   	push   %rbp
    10f1:	49 89 fa             	mov    %rdi,%r10
    10f4:	48 89 e5             	mov    %rsp,%rbp
    10f7:	41 57                	push   %r15
    10f9:	4d 89 c7             	mov    %r8,%r15
    10fc:	41 56                	push   %r14
    10fe:	41 89 f6             	mov    %esi,%r14d
    1101:	41 55                	push   %r13
    1103:	49 89 d5             	mov    %rdx,%r13
    1106:	41 54                	push   %r12
    1108:	49 89 cc             	mov    %rcx,%r12
    110b:	53                   	push   %rbx
    110c:	44 89 cb             	mov    %r9d,%ebx
    110f:	48 83 ec 48          	sub    $0x48,%rsp
 * otherwise false.
 */
static inline bool
trace_trigger_soft_disabled(struct trace_event_file *file)
{
	unsigned long eflags = file->flags;
    1113:	4c 8b 47 48          	mov    0x48(%rdi),%r8
    1117:	65 48 8b 04 25 28 00 	mov    %gs:0x28,%rax
    111e:	00 00 
    1120:	48 89 45 d0          	mov    %rax,-0x30(%rbp)
    1124:	31 c0                	xor    %eax,%eax

	if (!(eflags & EVENT_FILE_FL_TRIGGER_COND)) {
    1126:	41 f7 c0 00 01 00 00 	test   $0x100,%r8d
    112d:	75 21                	jne    1150 <trace_event_raw_event_mm_vmscan_lru_shrink_inactive+0x60>
		if (eflags & EVENT_FILE_FL_TRIGGER_MODE)
    112f:	41 f6 c0 80          	test   $0x80,%r8b
    1133:	0f 85 af 00 00 00    	jne    11e8 <trace_event_raw_event_mm_vmscan_lru_shrink_inactive+0xf8>
			event_triggers_call(file, NULL, NULL, NULL);
		if (eflags & EVENT_FILE_FL_SOFT_DISABLED)
    1139:	41 f6 c0 40          	test   $0x40,%r8b
    113d:	0f 85 87 00 00 00    	jne    11ca <trace_event_raw_event_mm_vmscan_lru_shrink_inactive+0xda>
			return true;
		if (eflags & EVENT_FILE_FL_PID_FILTER)
    1143:	41 f7 c0 00 02 00 00 	test   $0x200,%r8d
    114a:	0f 85 b8 00 00 00    	jne    1208 <trace_event_raw_event_mm_vmscan_lru_shrink_inactive+0x118>
    1150:	ba 60 00 00 00       	mov    $0x60,%edx
    1155:	4c 89 d6             	mov    %r10,%rsi
    1158:	48 8d 7d a0          	lea    -0x60(%rbp),%rdi
    115c:	e8 00 00 00 00       	call   1161 <trace_event_raw_event_mm_vmscan_lru_shrink_inactive+0x71>
    1161:	48 85 c0             	test   %rax,%rax
    1164:	74 64                	je     11ca <trace_event_raw_event_mm_vmscan_lru_shrink_inactive+0xda>
    1166:	44 89 70 08          	mov    %r14d,0x8(%rax)
    116a:	83 7d 10 01          	cmpl   $0x1,0x10(%rbp)
    116e:	48 8d 7d a0          	lea    -0x60(%rbp),%rdi
    1172:	4c 89 68 10          	mov    %r13,0x10(%rax)
    1176:	4c 89 60 18          	mov    %r12,0x18(%rax)
    117a:	41 8b 0f             	mov    (%r15),%ecx
    117d:	48 89 48 20          	mov    %rcx,0x20(%rax)
    1181:	41 8b 77 0c          	mov    0xc(%r15),%esi
    1185:	48 89 70 28          	mov    %rsi,0x28(%rax)
    1189:	41 8b 4f 08          	mov    0x8(%r15),%ecx
    118d:	48 89 48 30          	mov    %rcx,0x30(%rax)
    1191:	41 8b 77 10          	mov    0x10(%r15),%esi
    1195:	48 89 70 38          	mov    %rsi,0x38(%rax)
    1199:	41 8b 57 18          	mov    0x18(%r15),%edx
    119d:	89 50 40             	mov    %edx,0x40(%rax)
    11a0:	41 8b 57 1c          	mov    0x1c(%r15),%edx
    11a4:	89 50 44             	mov    %edx,0x44(%rax)
    11a7:	41 8b 4f 20          	mov    0x20(%r15),%ecx
    11ab:	ba 09 00 00 00       	mov    $0x9,%edx
    11b0:	83 da ff             	sbb    $0xffffffff,%edx
    11b3:	48 89 48 48          	mov    %rcx,0x48(%rax)
    11b7:	41 8b 77 24          	mov    0x24(%r15),%esi
    11bb:	89 58 58             	mov    %ebx,0x58(%rax)
    11be:	48 89 70 50          	mov    %rsi,0x50(%rax)
    11c2:	89 50 5c             	mov    %edx,0x5c(%rax)
    11c5:	e8 00 00 00 00       	call   11ca <trace_event_raw_event_mm_vmscan_lru_shrink_inactive+0xda>
    11ca:	48 8b 45 d0          	mov    -0x30(%rbp),%rax
    11ce:	65 48 2b 04 25 28 00 	sub    %gs:0x28,%rax
    11d5:	00 00 
    11d7:	75 48                	jne    1221 <trace_event_raw_event_mm_vmscan_lru_shrink_inactive+0x131>
    11d9:	48 83 c4 48          	add    $0x48,%rsp
    11dd:	5b                   	pop    %rbx
    11de:	41 5c                	pop    %r12
    11e0:	41 5d                	pop    %r13
    11e2:	41 5e                	pop    %r14
    11e4:	41 5f                	pop    %r15
    11e6:	5d                   	pop    %rbp
    11e7:	c3                   	ret    
			event_triggers_call(file, NULL, NULL, NULL);
    11e8:	31 c9                	xor    %ecx,%ecx
    11ea:	31 d2                	xor    %edx,%edx
    11ec:	31 f6                	xor    %esi,%esi
    11ee:	4c 89 45 90          	mov    %r8,-0x70(%rbp)
    11f2:	48 89 7d 98          	mov    %rdi,-0x68(%rbp)
    11f6:	e8 00 00 00 00       	call   11fb <trace_event_raw_event_mm_vmscan_lru_shrink_inactive+0x10b>
    11fb:	4c 8b 45 90          	mov    -0x70(%rbp),%r8
    11ff:	4c 8b 55 98          	mov    -0x68(%rbp),%r10
    1203:	e9 31 ff ff ff       	jmp    1139 <trace_event_raw_event_mm_vmscan_lru_shrink_inactive+0x49>
			return trace_event_ignore_this_pid(file);
    1208:	4c 89 d7             	mov    %r10,%rdi
    120b:	4c 89 55 98          	mov    %r10,-0x68(%rbp)
    120f:	e8 00 00 00 00       	call   1214 <trace_event_raw_event_mm_vmscan_lru_shrink_inactive+0x124>
    1214:	4c 8b 55 98          	mov    -0x68(%rbp),%r10
    1218:	84 c0                	test   %al,%al
    121a:	75 ae                	jne    11ca <trace_event_raw_event_mm_vmscan_lru_shrink_inactive+0xda>
    121c:	e9 2f ff ff ff       	jmp    1150 <trace_event_raw_event_mm_vmscan_lru_shrink_inactive+0x60>
    1221:	e8 00 00 00 00       	call   1226 <trace_event_raw_event_mm_vmscan_lru_shrink_inactive+0x136>
    1226:	66 2e 0f 1f 84 00 00 	cs nopw 0x0(%rax,%rax,1)
    122d:	00 00 00 

0000000000001230 <trace_raw_output_mm_vmscan_kswapd_sleep>:
TRACE_EVENT(mm_vmscan_kswapd_sleep,
    1230:	55                   	push   %rbp
    1231:	48 89 d6             	mov    %rdx,%rsi
    1234:	48 89 e5             	mov    %rsp,%rbp
    1237:	41 54                	push   %r12
    1239:	53                   	push   %rbx
    123a:	48 89 fb             	mov    %rdi,%rbx
    123d:	4c 8b a7 d8 20 00 00 	mov    0x20d8(%rdi),%r12
    1244:	e8 00 00 00 00       	call   1249 <trace_raw_output_mm_vmscan_kswapd_sleep+0x19>
    1249:	83 f8 01             	cmp    $0x1,%eax
    124c:	74 05                	je     1253 <trace_raw_output_mm_vmscan_kswapd_sleep+0x23>
    124e:	5b                   	pop    %rbx
    124f:	41 5c                	pop    %r12
    1251:	5d                   	pop    %rbp
    1252:	c3                   	ret    
    1253:	41 8b 54 24 08       	mov    0x8(%r12),%edx
    1258:	48 89 df             	mov    %rbx,%rdi
    125b:	48 c7 c6 00 00 00 00 	mov    $0x0,%rsi
    1262:	e8 00 00 00 00       	call   1267 <trace_raw_output_mm_vmscan_kswapd_sleep+0x37>
    1267:	48 8d bb b0 10 00 00 	lea    0x10b0(%rbx),%rdi
    126e:	e8 00 00 00 00       	call   1273 <trace_raw_output_mm_vmscan_kswapd_sleep+0x43>
    1273:	5b                   	pop    %rbx
    1274:	41 5c                	pop    %r12
    1276:	5d                   	pop    %rbp
    1277:	c3                   	ret    
    1278:	0f 1f 84 00 00 00 00 	nopl   0x0(%rax,%rax,1)
    127f:	00 

0000000000001280 <trace_raw_output_mm_vmscan_kswapd_wake>:
TRACE_EVENT(mm_vmscan_kswapd_wake,
    1280:	55                   	push   %rbp
    1281:	48 89 d6             	mov    %rdx,%rsi
    1284:	48 89 e5             	mov    %rsp,%rbp
    1287:	41 54                	push   %r12
    1289:	53                   	push   %rbx
    128a:	48 89 fb             	mov    %rdi,%rbx
    128d:	4c 8b a7 d8 20 00 00 	mov    0x20d8(%rdi),%r12
    1294:	e8 00 00 00 00       	call   1299 <trace_raw_output_mm_vmscan_kswapd_wake+0x19>
    1299:	83 f8 01             	cmp    $0x1,%eax
    129c:	74 05                	je     12a3 <trace_raw_output_mm_vmscan_kswapd_wake+0x23>
    129e:	5b                   	pop    %rbx
    129f:	41 5c                	pop    %r12
    12a1:	5d                   	pop    %rbp
    12a2:	c3                   	ret    
    12a3:	41 8b 4c 24 10       	mov    0x10(%r12),%ecx
    12a8:	41 8b 54 24 08       	mov    0x8(%r12),%edx
    12ad:	48 89 df             	mov    %rbx,%rdi
    12b0:	48 c7 c6 00 00 00 00 	mov    $0x0,%rsi
    12b7:	e8 00 00 00 00       	call   12bc <trace_raw_output_mm_vmscan_kswapd_wake+0x3c>
    12bc:	48 8d bb b0 10 00 00 	lea    0x10b0(%rbx),%rdi
    12c3:	e8 00 00 00 00       	call   12c8 <trace_raw_output_mm_vmscan_kswapd_wake+0x48>
    12c8:	5b                   	pop    %rbx
    12c9:	41 5c                	pop    %r12
    12cb:	5d                   	pop    %rbp
    12cc:	c3                   	ret    
    12cd:	0f 1f 00             	nopl   (%rax)

00000000000012d0 <trace_raw_output_mm_vmscan_direct_reclaim_end_template>:
DECLARE_EVENT_CLASS(mm_vmscan_direct_reclaim_end_template,
    12d0:	55                   	push   %rbp
    12d1:	48 89 d6             	mov    %rdx,%rsi
    12d4:	48 89 e5             	mov    %rsp,%rbp
    12d7:	41 54                	push   %r12
    12d9:	53                   	push   %rbx
    12da:	48 89 fb             	mov    %rdi,%rbx
    12dd:	4c 8b a7 d8 20 00 00 	mov    0x20d8(%rdi),%r12
    12e4:	e8 00 00 00 00       	call   12e9 <trace_raw_output_mm_vmscan_direct_reclaim_end_template+0x19>
    12e9:	83 f8 01             	cmp    $0x1,%eax
    12ec:	74 05                	je     12f3 <trace_raw_output_mm_vmscan_direct_reclaim_end_template+0x23>
    12ee:	5b                   	pop    %rbx
    12ef:	41 5c                	pop    %r12
    12f1:	5d                   	pop    %rbp
    12f2:	c3                   	ret    
    12f3:	49 8b 54 24 08       	mov    0x8(%r12),%rdx
    12f8:	48 89 df             	mov    %rbx,%rdi
    12fb:	48 c7 c6 00 00 00 00 	mov    $0x0,%rsi
    1302:	e8 00 00 00 00       	call   1307 <trace_raw_output_mm_vmscan_direct_reclaim_end_template+0x37>
    1307:	48 8d bb b0 10 00 00 	lea    0x10b0(%rbx),%rdi
    130e:	e8 00 00 00 00       	call   1313 <trace_raw_output_mm_vmscan_direct_reclaim_end_template+0x43>
    1313:	5b                   	pop    %rbx
    1314:	41 5c                	pop    %r12
    1316:	5d                   	pop    %rbp
    1317:	c3                   	ret    
    1318:	0f 1f 84 00 00 00 00 	nopl   0x0(%rax,%rax,1)
    131f:	00 

0000000000001320 <trace_raw_output_mm_shrink_slab_end>:
TRACE_EVENT(mm_shrink_slab_end,
    1320:	55                   	push   %rbp
    1321:	48 89 d6             	mov    %rdx,%rsi
    1324:	48 89 e5             	mov    %rsp,%rbp
    1327:	41 54                	push   %r12
    1329:	53                   	push   %rbx
    132a:	48 89 fb             	mov    %rdi,%rbx
    132d:	4c 8b a7 d8 20 00 00 	mov    0x20d8(%rdi),%r12
    1334:	e8 00 00 00 00       	call   1339 <trace_raw_output_mm_shrink_slab_end+0x19>
    1339:	83 f8 01             	cmp    $0x1,%eax
    133c:	74 09                	je     1347 <trace_raw_output_mm_shrink_slab_end+0x27>
    133e:	48 8d 65 f0          	lea    -0x10(%rbp),%rsp
    1342:	5b                   	pop    %rbx
    1343:	41 5c                	pop    %r12
    1345:	5d                   	pop    %rbp
    1346:	c3                   	ret    
    1347:	41 8b 44 24 30       	mov    0x30(%r12),%eax
    134c:	4d 8b 4c 24 20       	mov    0x20(%r12),%r9
    1351:	48 89 df             	mov    %rbx,%rdi
    1354:	48 c7 c6 00 00 00 00 	mov    $0x0,%rsi
    135b:	45 8b 44 24 10       	mov    0x10(%r12),%r8d
    1360:	49 8b 4c 24 08       	mov    0x8(%r12),%rcx
    1365:	49 8b 54 24 18       	mov    0x18(%r12),%rdx
    136a:	50                   	push   %rax
    136b:	41 ff 74 24 38       	push   0x38(%r12)
    1370:	41 ff 74 24 28       	push   0x28(%r12)
    1375:	e8 00 00 00 00       	call   137a <trace_raw_output_mm_shrink_slab_end+0x5a>
    137a:	48 8d bb b0 10 00 00 	lea    0x10b0(%rbx),%rdi
    1381:	e8 00 00 00 00       	call   1386 <trace_raw_output_mm_shrink_slab_end+0x66>
    1386:	48 83 c4 18          	add    $0x18,%rsp
    138a:	48 8d 65 f0          	lea    -0x10(%rbp),%rsp
    138e:	5b                   	pop    %rbx
    138f:	41 5c                	pop    %r12
    1391:	5d                   	pop    %rbp
    1392:	c3                   	ret    
    1393:	66 66 2e 0f 1f 84 00 	data16 cs nopw 0x0(%rax,%rax,1)
    139a:	00 00 00 00 
    139e:	66 90                	xchg   %ax,%ax

00000000000013a0 <trace_raw_output_mm_vmscan_wakeup_kswapd>:
TRACE_EVENT(mm_vmscan_wakeup_kswapd,
    13a0:	55                   	push   %rbp
    13a1:	48 89 d6             	mov    %rdx,%rsi
    13a4:	48 89 e5             	mov    %rsp,%rbp
    13a7:	41 54                	push   %r12
    13a9:	53                   	push   %rbx
    13aa:	48 89 fb             	mov    %rdi,%rbx
    13ad:	4c 8b a7 d8 20 00 00 	mov    0x20d8(%rdi),%r12
    13b4:	e8 00 00 00 00       	call   13b9 <trace_raw_output_mm_vmscan_wakeup_kswapd+0x19>
    13b9:	83 f8 01             	cmp    $0x1,%eax
    13bc:	75 35                	jne    13f3 <trace_raw_output_mm_vmscan_wakeup_kswapd+0x53>
    13be:	41 8b 54 24 14       	mov    0x14(%r12),%edx
    13c3:	49 c7 c0 00 00 00 00 	mov    $0x0,%r8
    13ca:	85 d2                	test   %edx,%edx
    13cc:	75 2a                	jne    13f8 <trace_raw_output_mm_vmscan_wakeup_kswapd+0x58>
    13ce:	41 8b 4c 24 10       	mov    0x10(%r12),%ecx
    13d3:	41 8b 54 24 08       	mov    0x8(%r12),%edx
    13d8:	48 89 df             	mov    %rbx,%rdi
    13db:	48 c7 c6 00 00 00 00 	mov    $0x0,%rsi
    13e2:	e8 00 00 00 00       	call   13e7 <trace_raw_output_mm_vmscan_wakeup_kswapd+0x47>
    13e7:	48 8d bb b0 10 00 00 	lea    0x10b0(%rbx),%rdi
    13ee:	e8 00 00 00 00       	call   13f3 <trace_raw_output_mm_vmscan_wakeup_kswapd+0x53>
    13f3:	5b                   	pop    %rbx
    13f4:	41 5c                	pop    %r12
    13f6:	5d                   	pop    %rbp
    13f7:	c3                   	ret    
    13f8:	48 8d 7b 78          	lea    0x78(%rbx),%rdi
    13fc:	48 c7 c1 00 00 00 00 	mov    $0x0,%rcx
    1403:	48 c7 c6 00 00 00 00 	mov    $0x0,%rsi
    140a:	e8 00 00 00 00       	call   140f <trace_raw_output_mm_vmscan_wakeup_kswapd+0x6f>
    140f:	49 89 c0             	mov    %rax,%r8
    1412:	eb ba                	jmp    13ce <trace_raw_output_mm_vmscan_wakeup_kswapd+0x2e>
    1414:	66 66 2e 0f 1f 84 00 	data16 cs nopw 0x0(%rax,%rax,1)
    141b:	00 00 00 00 
    141f:	90                   	nop

0000000000001420 <trace_raw_output_mm_vmscan_direct_reclaim_begin_template>:
DECLARE_EVENT_CLASS(mm_vmscan_direct_reclaim_begin_template,
    1420:	55                   	push   %rbp
    1421:	48 89 d6             	mov    %rdx,%rsi
    1424:	48 89 e5             	mov    %rsp,%rbp
    1427:	41 54                	push   %r12
    1429:	53                   	push   %rbx
    142a:	48 89 fb             	mov    %rdi,%rbx
    142d:	4c 8b a7 d8 20 00 00 	mov    0x20d8(%rdi),%r12
    1434:	e8 00 00 00 00       	call   1439 <trace_raw_output_mm_vmscan_direct_reclaim_begin_template+0x19>
    1439:	83 f8 01             	cmp    $0x1,%eax
    143c:	75 30                	jne    146e <trace_raw_output_mm_vmscan_direct_reclaim_begin_template+0x4e>
    143e:	41 8b 54 24 0c       	mov    0xc(%r12),%edx
    1443:	48 c7 c1 00 00 00 00 	mov    $0x0,%rcx
    144a:	85 d2                	test   %edx,%edx
    144c:	75 25                	jne    1473 <trace_raw_output_mm_vmscan_direct_reclaim_begin_template+0x53>
    144e:	41 8b 54 24 08       	mov    0x8(%r12),%edx
    1453:	48 89 df             	mov    %rbx,%rdi
    1456:	48 c7 c6 00 00 00 00 	mov    $0x0,%rsi
    145d:	e8 00 00 00 00       	call   1462 <trace_raw_output_mm_vmscan_direct_reclaim_begin_template+0x42>
    1462:	48 8d bb b0 10 00 00 	lea    0x10b0(%rbx),%rdi
    1469:	e8 00 00 00 00       	call   146e <trace_raw_output_mm_vmscan_direct_reclaim_begin_template+0x4e>
    146e:	5b                   	pop    %rbx
    146f:	41 5c                	pop    %r12
    1471:	5d                   	pop    %rbp
    1472:	c3                   	ret    
    1473:	48 c7 c1 00 00 00 00 	mov    $0x0,%rcx
    147a:	48 8d 7b 78          	lea    0x78(%rbx),%rdi
    147e:	48 c7 c6 00 00 00 00 	mov    $0x0,%rsi
    1485:	e8 00 00 00 00       	call   148a <trace_raw_output_mm_vmscan_direct_reclaim_begin_template+0x6a>
    148a:	48 89 c1             	mov    %rax,%rcx
    148d:	eb bf                	jmp    144e <trace_raw_output_mm_vmscan_direct_reclaim_begin_template+0x2e>
    148f:	90                   	nop

0000000000001490 <trace_raw_output_mm_shrink_slab_start>:
TRACE_EVENT(mm_shrink_slab_start,
    1490:	55                   	push   %rbp
    1491:	48 89 d6             	mov    %rdx,%rsi
    1494:	48 89 e5             	mov    %rsp,%rbp
    1497:	41 57                	push   %r15
    1499:	41 56                	push   %r14
    149b:	41 55                	push   %r13
    149d:	41 54                	push   %r12
    149f:	53                   	push   %rbx
    14a0:	48 89 fb             	mov    %rdi,%rbx
    14a3:	48 83 ec 08          	sub    $0x8,%rsp
    14a7:	4c 8b a7 d8 20 00 00 	mov    0x20d8(%rdi),%r12
    14ae:	e8 00 00 00 00       	call   14b3 <trace_raw_output_mm_shrink_slab_start+0x23>
    14b3:	83 f8 01             	cmp    $0x1,%eax
    14b6:	75 60                	jne    1518 <trace_raw_output_mm_shrink_slab_start+0x88>
    14b8:	41 8b 54 24 28       	mov    0x28(%r12),%edx
    14bd:	45 8b 54 24 48       	mov    0x48(%r12),%r10d
    14c2:	48 c7 c0 00 00 00 00 	mov    $0x0,%rax
    14c9:	4d 8b 7c 24 40       	mov    0x40(%r12),%r15
    14ce:	4d 8b 74 24 38       	mov    0x38(%r12),%r14
    14d3:	4d 8b 6c 24 30       	mov    0x30(%r12),%r13
    14d8:	85 d2                	test   %edx,%edx
    14da:	75 4b                	jne    1527 <trace_raw_output_mm_shrink_slab_start+0x97>
    14dc:	4d 8b 4c 24 20       	mov    0x20(%r12),%r9
    14e1:	45 8b 44 24 18       	mov    0x18(%r12),%r8d
    14e6:	48 89 df             	mov    %rbx,%rdi
    14e9:	48 c7 c6 00 00 00 00 	mov    $0x0,%rsi
    14f0:	49 8b 4c 24 08       	mov    0x8(%r12),%rcx
    14f5:	49 8b 54 24 10       	mov    0x10(%r12),%rdx
    14fa:	41 52                	push   %r10
    14fc:	41 57                	push   %r15
    14fe:	41 56                	push   %r14
    1500:	41 55                	push   %r13
    1502:	50                   	push   %rax
    1503:	e8 00 00 00 00       	call   1508 <trace_raw_output_mm_shrink_slab_start+0x78>
    1508:	48 8d bb b0 10 00 00 	lea    0x10b0(%rbx),%rdi
    150f:	48 83 c4 28          	add    $0x28,%rsp
    1513:	e8 00 00 00 00       	call   1518 <trace_raw_output_mm_shrink_slab_start+0x88>
    1518:	48 8d 65 d8          	lea    -0x28(%rbp),%rsp
    151c:	5b                   	pop    %rbx
    151d:	41 5c                	pop    %r12
    151f:	41 5d                	pop    %r13
    1521:	41 5e                	pop    %r14
    1523:	41 5f                	pop    %r15
    1525:	5d                   	pop    %rbp
    1526:	c3                   	ret    
    1527:	48 8d 7b 78          	lea    0x78(%rbx),%rdi
    152b:	48 c7 c1 00 00 00 00 	mov    $0x0,%rcx
    1532:	48 c7 c6 00 00 00 00 	mov    $0x0,%rsi
    1539:	44 89 55 d4          	mov    %r10d,-0x2c(%rbp)
    153d:	e8 00 00 00 00       	call   1542 <trace_raw_output_mm_shrink_slab_start+0xb2>
    1542:	44 8b 55 d4          	mov    -0x2c(%rbp),%r10d
    1546:	eb 94                	jmp    14dc <trace_raw_output_mm_shrink_slab_start+0x4c>
    1548:	0f 1f 84 00 00 00 00 	nopl   0x0(%rax,%rax,1)
    154f:	00 

0000000000001550 <trace_raw_output_mm_vmscan_writepage>:
TRACE_EVENT(mm_vmscan_writepage,
    1550:	55                   	push   %rbp
    1551:	48 89 d6             	mov    %rdx,%rsi
    1554:	48 89 e5             	mov    %rsp,%rbp
    1557:	41 54                	push   %r12
    1559:	53                   	push   %rbx
    155a:	48 89 fb             	mov    %rdi,%rbx
    155d:	4c 8b a7 d8 20 00 00 	mov    0x20d8(%rdi),%r12
    1564:	e8 00 00 00 00       	call   1569 <trace_raw_output_mm_vmscan_writepage+0x19>
    1569:	83 f8 01             	cmp    $0x1,%eax
    156c:	75 3e                	jne    15ac <trace_raw_output_mm_vmscan_writepage+0x5c>
    156e:	49 63 54 24 10       	movslq 0x10(%r12),%rdx
    1573:	49 c7 c0 00 00 00 00 	mov    $0x0,%r8
    157a:	85 d2                	test   %edx,%edx
    157c:	75 33                	jne    15b1 <trace_raw_output_mm_vmscan_writepage+0x61>
    157e:	49 8b 4c 24 08       	mov    0x8(%r12),%rcx
    1583:	48 89 df             	mov    %rbx,%rdi
    1586:	48 c7 c6 00 00 00 00 	mov    $0x0,%rsi
    158d:	48 89 ca             	mov    %rcx,%rdx
    1590:	48 c1 e2 06          	shl    $0x6,%rdx
    1594:	48 03 15 00 00 00 00 	add    0x0(%rip),%rdx        # 159b <trace_raw_output_mm_vmscan_writepage+0x4b>
    159b:	e8 00 00 00 00       	call   15a0 <trace_raw_output_mm_vmscan_writepage+0x50>
    15a0:	48 8d bb b0 10 00 00 	lea    0x10b0(%rbx),%rdi
    15a7:	e8 00 00 00 00       	call   15ac <trace_raw_output_mm_vmscan_writepage+0x5c>
    15ac:	5b                   	pop    %rbx
    15ad:	41 5c                	pop    %r12
    15af:	5d                   	pop    %rbp
    15b0:	c3                   	ret    
    15b1:	48 8d 7b 78          	lea    0x78(%rbx),%rdi
    15b5:	48 c7 c1 00 00 00 00 	mov    $0x0,%rcx
    15bc:	48 c7 c6 00 00 00 00 	mov    $0x0,%rsi
    15c3:	e8 00 00 00 00       	call   15c8 <trace_raw_output_mm_vmscan_writepage+0x78>
    15c8:	49 89 c0             	mov    %rax,%r8
    15cb:	eb b1                	jmp    157e <trace_raw_output_mm_vmscan_writepage+0x2e>
    15cd:	0f 1f 00             	nopl   (%rax)

00000000000015d0 <trace_raw_output_mm_vmscan_lru_shrink_inactive>:
TRACE_EVENT(mm_vmscan_lru_shrink_inactive,
    15d0:	55                   	push   %rbp
    15d1:	48 89 d6             	mov    %rdx,%rsi
    15d4:	48 89 e5             	mov    %rsp,%rbp
    15d7:	41 54                	push   %r12
    15d9:	49 89 fc             	mov    %rdi,%r12
    15dc:	53                   	push   %rbx
    15dd:	48 8b 9f d8 20 00 00 	mov    0x20d8(%rdi),%rbx
    15e4:	e8 00 00 00 00       	call   15e9 <trace_raw_output_mm_vmscan_lru_shrink_inactive+0x19>
    15e9:	83 f8 01             	cmp    $0x1,%eax
    15ec:	75 5a                	jne    1648 <trace_raw_output_mm_vmscan_lru_shrink_inactive+0x78>
    15ee:	48 63 53 5c          	movslq 0x5c(%rbx),%rdx
    15f2:	48 c7 c0 00 00 00 00 	mov    $0x0,%rax
    15f9:	85 d2                	test   %edx,%edx
    15fb:	75 54                	jne    1651 <trace_raw_output_mm_vmscan_lru_shrink_inactive+0x81>
    15fd:	4c 8b 4b 20          	mov    0x20(%rbx),%r9
    1601:	8b 53 08             	mov    0x8(%rbx),%edx
    1604:	4c 89 e7             	mov    %r12,%rdi
    1607:	48 c7 c6 00 00 00 00 	mov    $0x0,%rsi
    160e:	4c 8b 43 18          	mov    0x18(%rbx),%r8
    1612:	48 8b 4b 10          	mov    0x10(%rbx),%rcx
    1616:	50                   	push   %rax
    1617:	8b 43 58             	mov    0x58(%rbx),%eax
    161a:	50                   	push   %rax
    161b:	ff 73 50             	push   0x50(%rbx)
    161e:	ff 73 48             	push   0x48(%rbx)
    1621:	8b 43 44             	mov    0x44(%rbx),%eax
    1624:	50                   	push   %rax
    1625:	8b 43 40             	mov    0x40(%rbx),%eax
    1628:	50                   	push   %rax
    1629:	ff 73 38             	push   0x38(%rbx)
    162c:	ff 73 30             	push   0x30(%rbx)
    162f:	ff 73 28             	push   0x28(%rbx)
    1632:	e8 00 00 00 00       	call   1637 <trace_raw_output_mm_vmscan_lru_shrink_inactive+0x67>
    1637:	49 8d bc 24 b0 10 00 	lea    0x10b0(%r12),%rdi
    163e:	00 
    163f:	48 83 c4 48          	add    $0x48,%rsp
    1643:	e8 00 00 00 00       	call   1648 <trace_raw_output_mm_vmscan_lru_shrink_inactive+0x78>
    1648:	48 8d 65 f0          	lea    -0x10(%rbp),%rsp
    164c:	5b                   	pop    %rbx
    164d:	41 5c                	pop    %r12
    164f:	5d                   	pop    %rbp
    1650:	c3                   	ret    
    1651:	49 8d 7c 24 78       	lea    0x78(%r12),%rdi
    1656:	48 c7 c1 00 00 00 00 	mov    $0x0,%rcx
    165d:	48 c7 c6 00 00 00 00 	mov    $0x0,%rsi
    1664:	e8 00 00 00 00       	call   1669 <trace_raw_output_mm_vmscan_lru_shrink_inactive+0x99>
    1669:	eb 92                	jmp    15fd <trace_raw_output_mm_vmscan_lru_shrink_inactive+0x2d>
    166b:	0f 1f 44 00 00       	nopl   0x0(%rax,%rax,1)

0000000000001670 <trace_raw_output_mm_vmscan_lru_shrink_active>:
TRACE_EVENT(mm_vmscan_lru_shrink_active,
    1670:	55                   	push   %rbp
    1671:	48 89 d6             	mov    %rdx,%rsi
    1674:	48 89 e5             	mov    %rsp,%rbp
    1677:	41 54                	push   %r12
    1679:	53                   	push   %rbx
    167a:	48 89 fb             	mov    %rdi,%rbx
    167d:	4c 8b a7 d8 20 00 00 	mov    0x20d8(%rdi),%r12
    1684:	e8 00 00 00 00       	call   1689 <trace_raw_output_mm_vmscan_lru_shrink_active+0x19>
    1689:	83 f8 01             	cmp    $0x1,%eax
    168c:	75 4f                	jne    16dd <trace_raw_output_mm_vmscan_lru_shrink_active+0x6d>
    168e:	49 63 54 24 34       	movslq 0x34(%r12),%rdx
    1693:	48 c7 c0 00 00 00 00 	mov    $0x0,%rax
    169a:	85 d2                	test   %edx,%edx
    169c:	75 48                	jne    16e6 <trace_raw_output_mm_vmscan_lru_shrink_active+0x76>
    169e:	4d 8b 4c 24 20       	mov    0x20(%r12),%r9
    16a3:	4d 8b 44 24 18       	mov    0x18(%r12),%r8
    16a8:	48 89 df             	mov    %rbx,%rdi
    16ab:	48 c7 c6 00 00 00 00 	mov    $0x0,%rsi
    16b2:	49 8b 4c 24 10       	mov    0x10(%r12),%rcx
    16b7:	41 8b 54 24 08       	mov    0x8(%r12),%edx
    16bc:	50                   	push   %rax
    16bd:	41 8b 44 24 30       	mov    0x30(%r12),%eax
    16c2:	50                   	push   %rax
    16c3:	41 ff 74 24 28       	push   0x28(%r12)
    16c8:	e8 00 00 00 00       	call   16cd <trace_raw_output_mm_vmscan_lru_shrink_active+0x5d>
    16cd:	48 8d bb b0 10 00 00 	lea    0x10b0(%rbx),%rdi
    16d4:	e8 00 00 00 00       	call   16d9 <trace_raw_output_mm_vmscan_lru_shrink_active+0x69>
    16d9:	48 83 c4 18          	add    $0x18,%rsp
    16dd:	48 8d 65 f0          	lea    -0x10(%rbp),%rsp
    16e1:	5b                   	pop    %rbx
    16e2:	41 5c                	pop    %r12
    16e4:	5d                   	pop    %rbp
    16e5:	c3                   	ret    
    16e6:	48 8d 7b 78          	lea    0x78(%rbx),%rdi
    16ea:	48 c7 c1 00 00 00 00 	mov    $0x0,%rcx
    16f1:	48 c7 c6 00 00 00 00 	mov    $0x0,%rsi
    16f8:	e8 00 00 00 00       	call   16fd <trace_raw_output_mm_vmscan_lru_shrink_active+0x8d>
    16fd:	eb 9f                	jmp    169e <trace_raw_output_mm_vmscan_lru_shrink_active+0x2e>
    16ff:	90                   	nop

0000000000001700 <trace_raw_output_mm_vmscan_node_reclaim_begin>:
TRACE_EVENT(mm_vmscan_node_reclaim_begin,
    1700:	55                   	push   %rbp
    1701:	48 89 d6             	mov    %rdx,%rsi
    1704:	48 89 e5             	mov    %rsp,%rbp
    1707:	41 54                	push   %r12
    1709:	53                   	push   %rbx
    170a:	48 89 fb             	mov    %rdi,%rbx
    170d:	4c 8b a7 d8 20 00 00 	mov    0x20d8(%rdi),%r12
    1714:	e8 00 00 00 00       	call   1719 <trace_raw_output_mm_vmscan_node_reclaim_begin+0x19>
    1719:	83 f8 01             	cmp    $0x1,%eax
    171c:	75 35                	jne    1753 <trace_raw_output_mm_vmscan_node_reclaim_begin+0x53>
    171e:	41 8b 54 24 10       	mov    0x10(%r12),%edx
    1723:	49 c7 c0 00 00 00 00 	mov    $0x0,%r8
    172a:	85 d2                	test   %edx,%edx
    172c:	75 2a                	jne    1758 <trace_raw_output_mm_vmscan_node_reclaim_begin+0x58>
    172e:	41 8b 4c 24 0c       	mov    0xc(%r12),%ecx
    1733:	41 8b 54 24 08       	mov    0x8(%r12),%edx
    1738:	48 89 df             	mov    %rbx,%rdi
    173b:	48 c7 c6 00 00 00 00 	mov    $0x0,%rsi
    1742:	e8 00 00 00 00       	call   1747 <trace_raw_output_mm_vmscan_node_reclaim_begin+0x47>
    1747:	48 8d bb b0 10 00 00 	lea    0x10b0(%rbx),%rdi
    174e:	e8 00 00 00 00       	call   1753 <trace_raw_output_mm_vmscan_node_reclaim_begin+0x53>
    1753:	5b                   	pop    %rbx
    1754:	41 5c                	pop    %r12
    1756:	5d                   	pop    %rbp
    1757:	c3                   	ret    
    1758:	48 8d 7b 78          	lea    0x78(%rbx),%rdi
    175c:	48 c7 c1 00 00 00 00 	mov    $0x0,%rcx
    1763:	48 c7 c6 00 00 00 00 	mov    $0x0,%rsi
    176a:	e8 00 00 00 00       	call   176f <trace_raw_output_mm_vmscan_node_reclaim_begin+0x6f>
    176f:	49 89 c0             	mov    %rax,%r8
    1772:	eb ba                	jmp    172e <trace_raw_output_mm_vmscan_node_reclaim_begin+0x2e>
    1774:	66 66 2e 0f 1f 84 00 	data16 cs nopw 0x0(%rax,%rax,1)
    177b:	00 00 00 00 
    177f:	90                   	nop

0000000000001780 <trace_raw_output_mm_vmscan_lru_isolate>:
TRACE_EVENT(mm_vmscan_lru_isolate,
    1780:	55                   	push   %rbp
    1781:	48 89 d6             	mov    %rdx,%rsi
    1784:	48 89 e5             	mov    %rsp,%rbp
    1787:	41 54                	push   %r12
    1789:	53                   	push   %rbx
    178a:	48 89 fb             	mov    %rdi,%rbx
    178d:	4c 8b a7 d8 20 00 00 	mov    0x20d8(%rdi),%r12
    1794:	e8 00 00 00 00       	call   1799 <trace_raw_output_mm_vmscan_lru_isolate+0x19>
    1799:	83 f8 01             	cmp    $0x1,%eax
    179c:	74 09                	je     17a7 <trace_raw_output_mm_vmscan_lru_isolate+0x27>
    179e:	48 8d 65 f0          	lea    -0x10(%rbp),%rsp
    17a2:	5b                   	pop    %rbx
    17a3:	41 5c                	pop    %r12
    17a5:	5d                   	pop    %rbp
    17a6:	c3                   	ret    
    17a7:	49 63 74 24 34       	movslq 0x34(%r12),%rsi
    17ac:	48 8d 7b 78          	lea    0x78(%rbx),%rdi
    17b0:	48 c7 c2 00 00 00 00 	mov    $0x0,%rdx
    17b7:	e8 00 00 00 00       	call   17bc <trace_raw_output_mm_vmscan_lru_isolate+0x3c>
    17bc:	4d 8b 4c 24 10       	mov    0x10(%r12),%r9
    17c1:	45 8b 44 24 0c       	mov    0xc(%r12),%r8d
    17c6:	48 89 df             	mov    %rbx,%rdi
    17c9:	41 8b 4c 24 08       	mov    0x8(%r12),%ecx
    17ce:	41 8b 54 24 30       	mov    0x30(%r12),%edx
    17d3:	50                   	push   %rax
    17d4:	48 c7 c6 00 00 00 00 	mov    $0x0,%rsi
    17db:	41 ff 74 24 28       	push   0x28(%r12)
    17e0:	41 ff 74 24 20       	push   0x20(%r12)
    17e5:	41 ff 74 24 18       	push   0x18(%r12)
    17ea:	e8 00 00 00 00       	call   17ef <trace_raw_output_mm_vmscan_lru_isolate+0x6f>
    17ef:	48 8d bb b0 10 00 00 	lea    0x10b0(%rbx),%rdi
    17f6:	48 83 c4 20          	add    $0x20,%rsp
    17fa:	e8 00 00 00 00       	call   17ff <trace_raw_output_mm_vmscan_lru_isolate+0x7f>
    17ff:	48 8d 65 f0          	lea    -0x10(%rbp),%rsp
    1803:	5b                   	pop    %rbx
    1804:	41 5c                	pop    %r12
    1806:	5d                   	pop    %rbp
    1807:	c3                   	ret    
    1808:	0f 1f 84 00 00 00 00 	nopl   0x0(%rax,%rax,1)
    180f:	00 

0000000000001810 <set_task_reclaim_state>:
 */
int vm_swappiness = 60;

static void set_task_reclaim_state(struct task_struct *task,
				   struct reclaim_state *rs)
{
    1810:	e8 00 00 00 00       	call   1815 <set_task_reclaim_state+0x5>
    1815:	55                   	push   %rbp
	/* Check for an overwrite */
	WARN_ON_ONCE(rs && task->reclaim_state);
    1816:	48 8b 87 58 0c 00 00 	mov    0xc58(%rdi),%rax
{
    181d:	48 89 e5             	mov    %rsp,%rbp
	WARN_ON_ONCE(rs && task->reclaim_state);
    1820:	48 85 f6             	test   %rsi,%rsi
    1823:	74 10                	je     1835 <set_task_reclaim_state+0x25>
    1825:	48 85 c0             	test   %rax,%rax
    1828:	74 02                	je     182c <set_task_reclaim_state+0x1c>
    182a:	0f 0b                	ud2    

	/* Check for the nulling of an already-nulled member */
	WARN_ON_ONCE(!rs && !task->reclaim_state);

	task->reclaim_state = rs;
    182c:	48 89 b7 58 0c 00 00 	mov    %rsi,0xc58(%rdi)
}
    1833:	5d                   	pop    %rbp
    1834:	c3                   	ret    
	WARN_ON_ONCE(!rs && !task->reclaim_state);
    1835:	48 85 c0             	test   %rax,%rax
    1838:	75 f2                	jne    182c <set_task_reclaim_state+0x1c>
    183a:	0f 0b                	ud2    
	task->reclaim_state = rs;
    183c:	48 89 b7 58 0c 00 00 	mov    %rsi,0xc58(%rdi)
}
    1843:	5d                   	pop    %rbp
    1844:	c3                   	ret    
    1845:	66 66 2e 0f 1f 84 00 	data16 cs nopw 0x0(%rax,%rax,1)
    184c:	00 00 00 00 

0000000000001850 <__bpf_trace_mm_vmscan_kswapd_sleep>:
TRACE_EVENT(mm_vmscan_kswapd_sleep,
    1850:	55                   	push   %rbp
    1851:	89 f6                	mov    %esi,%esi
    1853:	48 89 e5             	mov    %rsp,%rbp
    1856:	e8 00 00 00 00       	call   185b <__bpf_trace_mm_vmscan_kswapd_sleep+0xb>
    185b:	5d                   	pop    %rbp
    185c:	c3                   	ret    
    185d:	0f 1f 00             	nopl   (%rax)

0000000000001860 <__bpf_trace_mm_vmscan_direct_reclaim_end_template>:
DECLARE_EVENT_CLASS(mm_vmscan_direct_reclaim_end_template,
    1860:	55                   	push   %rbp
    1861:	48 89 e5             	mov    %rsp,%rbp
    1864:	e8 00 00 00 00       	call   1869 <__bpf_trace_mm_vmscan_direct_reclaim_end_template+0x9>
    1869:	5d                   	pop    %rbp
    186a:	c3                   	ret    
    186b:	0f 1f 44 00 00       	nopl   0x0(%rax,%rax,1)

0000000000001870 <__bpf_trace_mm_vmscan_writepage>:
TRACE_EVENT(mm_vmscan_writepage,
    1870:	55                   	push   %rbp
    1871:	48 89 e5             	mov    %rsp,%rbp
    1874:	e8 00 00 00 00       	call   1879 <__bpf_trace_mm_vmscan_writepage+0x9>
    1879:	5d                   	pop    %rbp
    187a:	c3                   	ret    
    187b:	0f 1f 44 00 00       	nopl   0x0(%rax,%rax,1)

0000000000001880 <__bpf_trace_mm_vmscan_kswapd_wake>:
TRACE_EVENT(mm_vmscan_kswapd_wake,
    1880:	55                   	push   %rbp
    1881:	89 c9                	mov    %ecx,%ecx
    1883:	89 d2                	mov    %edx,%edx
    1885:	89 f6                	mov    %esi,%esi
    1887:	48 89 e5             	mov    %rsp,%rbp
    188a:	e8 00 00 00 00       	call   188f <__bpf_trace_mm_vmscan_kswapd_wake+0xf>
    188f:	5d                   	pop    %rbp
    1890:	c3                   	ret    
    1891:	66 66 2e 0f 1f 84 00 	data16 cs nopw 0x0(%rax,%rax,1)
    1898:	00 00 00 00 
    189c:	0f 1f 40 00          	nopl   0x0(%rax)

00000000000018a0 <__bpf_trace_mm_vmscan_node_reclaim_begin>:
TRACE_EVENT(mm_vmscan_node_reclaim_begin,
    18a0:	55                   	push   %rbp
    18a1:	89 c9                	mov    %ecx,%ecx
    18a3:	89 d2                	mov    %edx,%edx
    18a5:	89 f6                	mov    %esi,%esi
    18a7:	48 89 e5             	mov    %rsp,%rbp
    18aa:	e8 00 00 00 00       	call   18af <__bpf_trace_mm_vmscan_node_reclaim_begin+0xf>
    18af:	5d                   	pop    %rbp
    18b0:	c3                   	ret    
    18b1:	66 66 2e 0f 1f 84 00 	data16 cs nopw 0x0(%rax,%rax,1)
    18b8:	00 00 00 00 
    18bc:	0f 1f 40 00          	nopl   0x0(%rax)

00000000000018c0 <__bpf_trace_mm_vmscan_wakeup_kswapd>:
TRACE_EVENT(mm_vmscan_wakeup_kswapd,
    18c0:	55                   	push   %rbp
    18c1:	89 c9                	mov    %ecx,%ecx
    18c3:	89 d2                	mov    %edx,%edx
    18c5:	89 f6                	mov    %esi,%esi
    18c7:	45 89 c0             	mov    %r8d,%r8d
    18ca:	48 89 e5             	mov    %rsp,%rbp
    18cd:	e8 00 00 00 00       	call   18d2 <__bpf_trace_mm_vmscan_wakeup_kswapd+0x12>
    18d2:	5d                   	pop    %rbp
    18d3:	c3                   	ret    
    18d4:	66 66 2e 0f 1f 84 00 	data16 cs nopw 0x0(%rax,%rax,1)
    18db:	00 00 00 00 
    18df:	90                   	nop

00000000000018e0 <__bpf_trace_mm_vmscan_direct_reclaim_begin_template>:
DECLARE_EVENT_CLASS(mm_vmscan_direct_reclaim_begin_template,
    18e0:	55                   	push   %rbp
    18e1:	89 d2                	mov    %edx,%edx
    18e3:	89 f6                	mov    %esi,%esi
    18e5:	48 89 e5             	mov    %rsp,%rbp
    18e8:	e8 00 00 00 00       	call   18ed <__bpf_trace_mm_vmscan_direct_reclaim_begin_template+0xd>
    18ed:	5d                   	pop    %rbp
    18ee:	c3                   	ret    
    18ef:	90                   	nop

00000000000018f0 <__bpf_trace_mm_shrink_slab_start>:
TRACE_EVENT(mm_shrink_slab_start,
    18f0:	55                   	push   %rbp
    18f1:	48 89 e5             	mov    %rsp,%rbp
    18f4:	8b 45 18             	mov    0x18(%rbp),%eax
    18f7:	50                   	push   %rax
    18f8:	ff 75 10             	push   0x10(%rbp)
    18fb:	e8 00 00 00 00       	call   1900 <__bpf_trace_mm_shrink_slab_start+0x10>
    1900:	58                   	pop    %rax
    1901:	5a                   	pop    %rdx
    1902:	c9                   	leave  
    1903:	c3                   	ret    
    1904:	66 66 2e 0f 1f 84 00 	data16 cs nopw 0x0(%rax,%rax,1)
    190b:	00 00 00 00 
    190f:	90                   	nop

0000000000001910 <__bpf_trace_mm_vmscan_lru_shrink_active>:
TRACE_EVENT(mm_vmscan_lru_shrink_active,
    1910:	55                   	push   %rbp
    1911:	89 f6                	mov    %esi,%esi
    1913:	48 89 e5             	mov    %rsp,%rbp
    1916:	8b 45 18             	mov    0x18(%rbp),%eax
    1919:	50                   	push   %rax
    191a:	8b 45 10             	mov    0x10(%rbp),%eax
    191d:	50                   	push   %rax
    191e:	e8 00 00 00 00       	call   1923 <__bpf_trace_mm_vmscan_lru_shrink_active+0x13>
    1923:	58                   	pop    %rax
    1924:	5a                   	pop    %rdx
    1925:	c9                   	leave  
    1926:	c3                   	ret    
    1927:	66 0f 1f 84 00 00 00 	nopw   0x0(%rax,%rax,1)
    192e:	00 00 

0000000000001930 <__bpf_trace_mm_shrink_slab_end>:
TRACE_EVENT(mm_shrink_slab_end,
    1930:	55                   	push   %rbp
    1931:	89 c9                	mov    %ecx,%ecx
    1933:	89 d2                	mov    %edx,%edx
    1935:	48 89 e5             	mov    %rsp,%rbp
    1938:	ff 75 10             	push   0x10(%rbp)
    193b:	e8 00 00 00 00       	call   1940 <__bpf_trace_mm_shrink_slab_end+0x10>
    1940:	58                   	pop    %rax
    1941:	c9                   	leave  
    1942:	c3                   	ret    
    1943:	66 66 2e 0f 1f 84 00 	data16 cs nopw 0x0(%rax,%rax,1)
    194a:	00 00 00 00 
    194e:	66 90                	xchg   %ax,%ax

0000000000001950 <__bpf_trace_mm_vmscan_lru_shrink_inactive>:
TRACE_EVENT(mm_vmscan_lru_shrink_inactive,
    1950:	55                   	push   %rbp
    1951:	89 f6                	mov    %esi,%esi
    1953:	45 89 c9             	mov    %r9d,%r9d
    1956:	48 89 e5             	mov    %rsp,%rbp
    1959:	8b 45 10             	mov    0x10(%rbp),%eax
    195c:	50                   	push   %rax
    195d:	e8 00 00 00 00       	call   1962 <__bpf_trace_mm_vmscan_lru_shrink_inactive+0x12>
    1962:	58                   	pop    %rax
    1963:	c9                   	leave  
    1964:	c3                   	ret    
    1965:	66 66 2e 0f 1f 84 00 	data16 cs nopw 0x0(%rax,%rax,1)
    196c:	00 00 00 00 

0000000000001970 <__bpf_trace_mm_vmscan_lru_isolate>:
TRACE_EVENT(mm_vmscan_lru_isolate,
    1970:	55                   	push   %rbp
    1971:	89 d2                	mov    %edx,%edx
    1973:	89 f6                	mov    %esi,%esi
    1975:	48 89 e5             	mov    %rsp,%rbp
    1978:	8b 45 20             	mov    0x20(%rbp),%eax
    197b:	50                   	push   %rax
    197c:	8b 45 18             	mov    0x18(%rbp),%eax
    197f:	50                   	push   %rax
    1980:	ff 75 10             	push   0x10(%rbp)
    1983:	e8 00 00 00 00       	call   1988 <__bpf_trace_mm_vmscan_lru_isolate+0x18>
    1988:	48 83 c4 18          	add    $0x18,%rsp
    198c:	c9                   	leave  
    198d:	c3                   	ret    
    198e:	66 90                	xchg   %ax,%ax

0000000000001990 <alloc_demote_page>:
	if (mapping && mapping->a_ops->is_dirty_writeback)
		mapping->a_ops->is_dirty_writeback(page, dirty, writeback);
}

static struct page *alloc_demote_page(struct page *page, unsigned long node)
{
    1990:	e8 00 00 00 00       	call   1995 <alloc_demote_page+0x5>
    1995:	55                   	push   %rbp
    1996:	48 89 e5             	mov    %rsp,%rbp
    1999:	48 83 ec 20          	sub    $0x20,%rsp
    199d:	65 48 8b 04 25 28 00 	mov    %gs:0x28,%rax
    19a4:	00 00 
    19a6:	48 89 45 f8          	mov    %rax,-0x8(%rbp)
    19aa:	31 c0                	xor    %eax,%eax
	struct migration_target_control mtc = {
    19ac:	48 c7 45 e0 00 00 00 	movq   $0x0,-0x20(%rbp)
    19b3:	00 
    19b4:	89 75 e0             	mov    %esi,-0x20(%rbp)
			    __GFP_THISNODE  | __GFP_NOWARN |
			    __GFP_NOMEMALLOC | GFP_NOWAIT,
		.nid = node
	};

	return alloc_migration_target(page, (unsigned long)&mtc);
    19b7:	48 8d 75 e0          	lea    -0x20(%rbp),%rsi
	struct migration_target_control mtc = {
    19bb:	48 c7 45 f0 00 00 00 	movq   $0x0,-0x10(%rbp)
    19c2:	00 
    19c3:	48 c7 45 e8 00 00 00 	movq   $0x0,-0x18(%rbp)
    19ca:	00 
    19cb:	c7 45 f0 ca 28 38 01 	movl   $0x13828ca,-0x10(%rbp)
	return alloc_migration_target(page, (unsigned long)&mtc);
    19d2:	e8 00 00 00 00       	call   19d7 <alloc_demote_page+0x47>
}
    19d7:	48 8b 55 f8          	mov    -0x8(%rbp),%rdx
    19db:	65 48 2b 14 25 28 00 	sub    %gs:0x28,%rdx
    19e2:	00 00 
    19e4:	75 02                	jne    19e8 <alloc_demote_page+0x58>
    19e6:	c9                   	leave  
    19e7:	c3                   	ret    
    19e8:	e8 00 00 00 00       	call   19ed <alloc_demote_page+0x5d>
    19ed:	0f 1f 00             	nopl   (%rax)

00000000000019f0 <pgdat_balanced>:
/*
 * Returns true if there is an eligible zone balanced for the request order
 * and highest_zoneidx
 */
static bool pgdat_balanced(pg_data_t *pgdat, int order, int highest_zoneidx)
{
    19f0:	e8 00 00 00 00       	call   19f5 <pgdat_balanced+0x5>
    19f5:	55                   	push   %rbp
    19f6:	48 89 e5             	mov    %rsp,%rbp
    19f9:	41 57                	push   %r15
    19fb:	41 56                	push   %r14
    19fd:	41 55                	push   %r13
    19ff:	41 54                	push   %r12
    1a01:	53                   	push   %rbx
    1a02:	48 83 ec 08          	sub    $0x8,%rsp
    1a06:	89 75 d4             	mov    %esi,-0x2c(%rbp)

	/*
	 * Check watermarks bottom-up as lower zones are more likely to
	 * meet watermarks.
	 */
	for (i = 0; i <= highest_zoneidx; i++) {
    1a09:	85 d2                	test   %edx,%edx
    1a0b:	0f 88 b5 00 00 00    	js     1ac6 <pgdat_balanced+0xd6>
    1a11:	48 89 fb             	mov    %rdi,%rbx
    1a14:	41 89 d5             	mov    %edx,%r13d
	unsigned long mark = -1;
    1a17:	49 c7 c7 ff ff ff ff 	mov    $0xffffffffffffffff,%r15
	for (i = 0; i <= highest_zoneidx; i++) {
    1a1e:	45 31 f6             	xor    %r14d,%r14d
    1a21:	eb 1e                	jmp    1a41 <pgdat_balanced+0x51>

			promote_mark = min((sysctl_numa_balancing_promote_watermark_mb * 1024UL * 1024 >> PAGE_SHIFT),
					 pgdat->node_present_pages >> 6);
			mark += promote_mark;
		}
		if (zone_watermark_ok_safe(zone, order, mark, highest_zoneidx))
    1a23:	8b 75 d4             	mov    -0x2c(%rbp),%esi
    1a26:	44 89 e9             	mov    %r13d,%ecx
    1a29:	4c 89 fa             	mov    %r15,%rdx
    1a2c:	4c 89 e7             	mov    %r12,%rdi
    1a2f:	e8 00 00 00 00       	call   1a34 <pgdat_balanced+0x44>
    1a34:	84 c0                	test   %al,%al
    1a36:	75 7f                	jne    1ab7 <pgdat_balanced+0xc7>
	for (i = 0; i <= highest_zoneidx; i++) {
    1a38:	41 83 c6 01          	add    $0x1,%r14d
    1a3c:	45 39 f5             	cmp    %r14d,%r13d
    1a3f:	7c 6f                	jl     1ab0 <pgdat_balanced+0xc0>
		zone = pgdat->node_zones + i;
    1a41:	49 63 c6             	movslq %r14d,%rax
    1a44:	48 8d 04 40          	lea    (%rax,%rax,2),%rax
    1a48:	4c 8d 24 c0          	lea    (%rax,%rax,8),%r12
    1a4c:	49 c1 e4 06          	shl    $0x6,%r12
    1a50:	49 01 dc             	add    %rbx,%r12
 * Atomically reads the value of @v.
 * Doesn't imply a read memory barrier.
 */
static inline s64 arch_atomic64_read(const atomic64_t *v)
{
	return __READ_ONCE((v)->counter);
    1a53:	49 8b 84 24 80 00 00 	mov    0x80(%r12),%rax
    1a5a:	00 
		if (!managed_zone(zone))
    1a5b:	48 85 c0             	test   %rax,%rax
    1a5e:	74 d8                	je     1a38 <pgdat_balanced+0x48>
		mark = high_wmark_pages(zone);
    1a60:	4d 8b 7c 24 18       	mov    0x18(%r12),%r15
    1a65:	4d 03 7c 24 10       	add    0x10(%r12),%r15
		if (sysctl_numa_balancing_mode & NUMA_BALANCING_MEMORY_TIERING &&
    1a6a:	f6 05 00 00 00 00 02 	testb  $0x2,0x0(%rip)        # 1a71 <pgdat_balanced+0x81>
    1a71:	74 b0                	je     1a23 <pgdat_balanced+0x33>
    1a73:	80 3d 00 00 00 00 00 	cmpb   $0x0,0x0(%rip)        # 1a7a <pgdat_balanced+0x8a>
    1a7a:	74 a7                	je     1a23 <pgdat_balanced+0x33>
		    next_demotion_node(pgdat->node_id) != NUMA_NO_NODE) {
    1a7c:	8b bb 00 a2 02 00    	mov    0x2a200(%rbx),%edi
    1a82:	e8 00 00 00 00       	call   1a87 <pgdat_balanced+0x97>
		    numa_demotion_enabled &&
    1a87:	83 f8 ff             	cmp    $0xffffffff,%eax
    1a8a:	74 97                	je     1a23 <pgdat_balanced+0x33>
			promote_mark = min((sysctl_numa_balancing_promote_watermark_mb * 1024UL * 1024 >> PAGE_SHIFT),
    1a8c:	8b 05 00 00 00 00    	mov    0x0(%rip),%eax        # 1a92 <pgdat_balanced+0xa2>
    1a92:	48 8b 93 f0 a1 02 00 	mov    0x2a1f0(%rbx),%rdx
    1a99:	48 c1 e0 08          	shl    $0x8,%rax
    1a9d:	48 c1 ea 06          	shr    $0x6,%rdx
    1aa1:	48 39 d0             	cmp    %rdx,%rax
    1aa4:	48 0f 47 c2          	cmova  %rdx,%rax
			mark += promote_mark;
    1aa8:	49 01 c7             	add    %rax,%r15
    1aab:	e9 73 ff ff ff       	jmp    1a23 <pgdat_balanced+0x33>
	/*
	 * If a node has no populated zone within highest_zoneidx, it does not
	 * need balancing by definition. This can happen if a zone-restricted
	 * allocation tries to wake a remote kswapd.
	 */
	if (mark == -1)
    1ab0:	49 83 ff ff          	cmp    $0xffffffffffffffff,%r15
    1ab4:	0f 94 c0             	sete   %al
		return true;

	return false;
}
    1ab7:	48 83 c4 08          	add    $0x8,%rsp
    1abb:	5b                   	pop    %rbx
    1abc:	41 5c                	pop    %r12
    1abe:	41 5d                	pop    %r13
    1ac0:	41 5e                	pop    %r14
    1ac2:	41 5f                	pop    %r15
    1ac4:	5d                   	pop    %rbp
    1ac5:	c3                   	ret    
	for (i = 0; i <= highest_zoneidx; i++) {
    1ac6:	b8 01 00 00 00       	mov    $0x1,%eax
	if (mark == -1)
    1acb:	eb ea                	jmp    1ab7 <pgdat_balanced+0xc7>
    1acd:	0f 1f 00             	nopl   (%rax)

0000000000001ad0 <node_pagecache_reclaimable>:
	return (file_lru > file_mapped) ? (file_lru - file_mapped) : 0;
}

/* Work out how many page cache pages we can reclaim in this reclaim_mode */
static unsigned long node_pagecache_reclaimable(struct pglist_data *pgdat)
{
    1ad0:	e8 00 00 00 00       	call   1ad5 <node_pagecache_reclaimable+0x5>
    1ad5:	55                   	push   %rbp
    1ad6:	48 89 e5             	mov    %rsp,%rbp
    1ad9:	41 55                	push   %r13
    1adb:	41 54                	push   %r12
    1add:	49 89 fc             	mov    %rdi,%r12
    1ae0:	53                   	push   %rbx
	 * If RECLAIM_UNMAP is set, then all file pages are considered
	 * potentially reclaimable. Otherwise, we have to worry about
	 * pages like swapcache and node_unmapped_file_pages() provides
	 * a better estimate
	 */
	if (node_reclaim_mode & RECLAIM_UNMAP)
    1ae1:	f6 05 00 00 00 00 04 	testb  $0x4,0x0(%rip)        # 1ae8 <node_pagecache_reclaimable+0x18>
    1ae8:	74 20                	je     1b0a <node_pagecache_reclaimable+0x3a>
		nr_pagecache_reclaimable = node_page_state(pgdat, NR_FILE_PAGES);
    1aea:	be 13 00 00 00       	mov    $0x13,%esi
    1aef:	e8 00 00 00 00       	call   1af4 <node_pagecache_reclaimable+0x24>
    1af4:	49 89 c5             	mov    %rax,%r13
	else
		nr_pagecache_reclaimable = node_unmapped_file_pages(pgdat);

	/* If we can't clean pages, remove dirty pages from consideration */
	if (!(node_reclaim_mode & RECLAIM_WRITE))
    1af7:	f6 05 00 00 00 00 02 	testb  $0x2,0x0(%rip)        # 1afe <node_pagecache_reclaimable+0x2e>
    1afe:	74 52                	je     1b52 <node_pagecache_reclaimable+0x82>
	/* Watch for any possible underflows due to delta */
	if (unlikely(delta > nr_pagecache_reclaimable))
		delta = nr_pagecache_reclaimable;

	return nr_pagecache_reclaimable - delta;
}
    1b00:	5b                   	pop    %rbx
    1b01:	4c 89 e8             	mov    %r13,%rax
    1b04:	41 5c                	pop    %r12
    1b06:	41 5d                	pop    %r13
    1b08:	5d                   	pop    %rbp
    1b09:	c3                   	ret    
	unsigned long file_mapped = node_page_state(pgdat, NR_FILE_MAPPED);
    1b0a:	be 12 00 00 00       	mov    $0x12,%esi
    1b0f:	e8 00 00 00 00       	call   1b14 <node_pagecache_reclaimable+0x44>
	unsigned long file_lru = node_page_state(pgdat, NR_INACTIVE_FILE) +
    1b14:	be 02 00 00 00       	mov    $0x2,%esi
    1b19:	4c 89 e7             	mov    %r12,%rdi
	unsigned long file_mapped = node_page_state(pgdat, NR_FILE_MAPPED);
    1b1c:	48 89 c3             	mov    %rax,%rbx
	unsigned long file_lru = node_page_state(pgdat, NR_INACTIVE_FILE) +
    1b1f:	e8 00 00 00 00       	call   1b24 <node_pagecache_reclaimable+0x54>
		node_page_state(pgdat, NR_ACTIVE_FILE);
    1b24:	be 03 00 00 00       	mov    $0x3,%esi
    1b29:	4c 89 e7             	mov    %r12,%rdi
	unsigned long file_lru = node_page_state(pgdat, NR_INACTIVE_FILE) +
    1b2c:	49 89 c5             	mov    %rax,%r13
		node_page_state(pgdat, NR_ACTIVE_FILE);
    1b2f:	e8 00 00 00 00       	call   1b34 <node_pagecache_reclaimable+0x64>
	unsigned long file_lru = node_page_state(pgdat, NR_INACTIVE_FILE) +
    1b34:	4c 01 e8             	add    %r13,%rax
	return (file_lru > file_mapped) ? (file_lru - file_mapped) : 0;
    1b37:	49 89 c5             	mov    %rax,%r13
    1b3a:	49 29 dd             	sub    %rbx,%r13
    1b3d:	48 39 c3             	cmp    %rax,%rbx
    1b40:	b8 00 00 00 00       	mov    $0x0,%eax
    1b45:	4c 0f 43 e8          	cmovae %rax,%r13
	if (!(node_reclaim_mode & RECLAIM_WRITE))
    1b49:	f6 05 00 00 00 00 02 	testb  $0x2,0x0(%rip)        # 1b50 <node_pagecache_reclaimable+0x80>
    1b50:	75 ae                	jne    1b00 <node_pagecache_reclaimable+0x30>
		delta += node_page_state(pgdat, NR_FILE_DIRTY);
    1b52:	4c 89 e7             	mov    %r12,%rdi
    1b55:	be 14 00 00 00       	mov    $0x14,%esi
    1b5a:	e8 00 00 00 00       	call   1b5f <node_pagecache_reclaimable+0x8f>
}
    1b5f:	5b                   	pop    %rbx
    1b60:	41 5c                	pop    %r12
	return nr_pagecache_reclaimable - delta;
    1b62:	49 39 c5             	cmp    %rax,%r13
    1b65:	49 0f 46 c5          	cmovbe %r13,%rax
    1b69:	49 29 c5             	sub    %rax,%r13
}
    1b6c:	4c 89 e8             	mov    %r13,%rax
    1b6f:	41 5d                	pop    %r13
    1b71:	5d                   	pop    %rbp
    1b72:	c3                   	ret    
    1b73:	66 66 2e 0f 1f 84 00 	data16 cs nopw 0x0(%rax,%rax,1)
    1b7a:	00 00 00 00 
    1b7e:	66 90                	xchg   %ax,%ax

0000000000001b80 <unregister_shrinker>:
{
    1b80:	e8 00 00 00 00       	call   1b85 <unregister_shrinker+0x5>
	if (!(shrinker->flags & SHRINKER_REGISTERED))
    1b85:	f6 47 1c 01          	testb  $0x1,0x1c(%rdi)
    1b89:	75 01                	jne    1b8c <unregister_shrinker+0xc>
    1b8b:	c3                   	ret    
{
    1b8c:	55                   	push   %rbp
    1b8d:	48 89 e5             	mov    %rsp,%rbp
    1b90:	53                   	push   %rbx
    1b91:	48 89 fb             	mov    %rdi,%rbx
	down_write(&shrinker_rwsem);
    1b94:	48 c7 c7 00 00 00 00 	mov    $0x0,%rdi
    1b9b:	e8 00 00 00 00       	call   1ba0 <unregister_shrinker+0x20>
	__list_del(entry->prev, entry->next);
    1ba0:	48 8b 53 20          	mov    0x20(%rbx),%rdx
    1ba4:	48 8b 43 28          	mov    0x28(%rbx),%rax
	next->prev = prev;
    1ba8:	48 89 42 08          	mov    %rax,0x8(%rdx)
	WRITE_ONCE(prev->next, next);
    1bac:	48 89 10             	mov    %rdx,(%rax)
	entry->next = LIST_POISON1;
    1baf:	48 b8 00 01 00 00 00 	movabs $0xdead000000000100,%rax
    1bb6:	00 ad de 
    1bb9:	48 89 43 20          	mov    %rax,0x20(%rbx)
	entry->prev = LIST_POISON2;
    1bbd:	48 83 c0 22          	add    $0x22,%rax
    1bc1:	48 89 43 28          	mov    %rax,0x28(%rbx)
	shrinker->flags &= ~SHRINKER_REGISTERED;
    1bc5:	8b 43 1c             	mov    0x1c(%rbx),%eax
    1bc8:	89 c2                	mov    %eax,%edx
    1bca:	83 e2 fe             	and    $0xfffffffe,%edx
    1bcd:	89 53 1c             	mov    %edx,0x1c(%rbx)
	if (shrinker->flags & SHRINKER_MEMCG_AWARE)
    1bd0:	a8 04                	test   $0x4,%al
    1bd2:	75 23                	jne    1bf7 <unregister_shrinker+0x77>
	up_write(&shrinker_rwsem);
    1bd4:	48 c7 c7 00 00 00 00 	mov    $0x0,%rdi
    1bdb:	e8 00 00 00 00       	call   1be0 <unregister_shrinker+0x60>
	kfree(shrinker->nr_deferred);
    1be0:	48 8b 7b 38          	mov    0x38(%rbx),%rdi
    1be4:	e8 00 00 00 00       	call   1be9 <unregister_shrinker+0x69>
	shrinker->nr_deferred = NULL;
    1be9:	48 c7 43 38 00 00 00 	movq   $0x0,0x38(%rbx)
    1bf0:	00 
}
    1bf1:	48 8b 5d f8          	mov    -0x8(%rbp),%rbx
    1bf5:	c9                   	leave  
    1bf6:	c3                   	ret    
		unregister_memcg_shrinker(shrinker);
    1bf7:	48 63 73 30          	movslq 0x30(%rbx),%rsi
	BUG_ON(id < 0);
    1bfb:	85 f6                	test   %esi,%esi
    1bfd:	78 0e                	js     1c0d <unregister_shrinker+0x8d>
	idr_remove(&shrinker_idr, id);
    1bff:	48 c7 c7 00 00 00 00 	mov    $0x0,%rdi
    1c06:	e8 00 00 00 00       	call   1c0b <unregister_shrinker+0x8b>
}
    1c0b:	eb c7                	jmp    1bd4 <unregister_shrinker+0x54>
	BUG_ON(id < 0);
    1c0d:	0f 0b                	ud2    
    1c0f:	90                   	nop

0000000000001c10 <perf_trace_mm_vmscan_writepage>:
TRACE_EVENT(mm_vmscan_writepage,
    1c10:	55                   	push   %rbp
    1c11:	48 89 e5             	mov    %rsp,%rbp
    1c14:	41 55                	push   %r13
    1c16:	49 89 fd             	mov    %rdi,%r13
    1c19:	41 54                	push   %r12
    1c1b:	53                   	push   %rbx
    1c1c:	48 89 f3             	mov    %rsi,%rbx
    1c1f:	48 83 ec 18          	sub    $0x18,%rsp
    1c23:	4c 8b 67 78          	mov    0x78(%rdi),%r12
    1c27:	65 48 8b 04 25 28 00 	mov    %gs:0x28,%rax
    1c2e:	00 00 
    1c30:	48 89 45 e0          	mov    %rax,-0x20(%rbp)
    1c34:	31 c0                	xor    %eax,%eax
    1c36:	65 4c 03 25 00 00 00 	add    %gs:0x0(%rip),%r12        # 1c3e <perf_trace_mm_vmscan_writepage+0x2e>
    1c3d:	00 
	return !!READ_ONCE(call->prog_array);
    1c3e:	48 8b 87 80 00 00 00 	mov    0x80(%rdi),%rax
    1c45:	48 85 c0             	test   %rax,%rax
    1c48:	0f 84 b3 00 00 00    	je     1d01 <perf_trace_mm_vmscan_writepage+0xf1>
    1c4e:	bf 1c 00 00 00       	mov    $0x1c,%edi
    1c53:	48 8d 55 d4          	lea    -0x2c(%rbp),%rdx
    1c57:	48 8d 75 d8          	lea    -0x28(%rbp),%rsi
    1c5b:	e8 00 00 00 00       	call   1c60 <perf_trace_mm_vmscan_writepage+0x50>
    1c60:	48 89 c7             	mov    %rax,%rdi
    1c63:	48 85 c0             	test   %rax,%rax
    1c66:	74 7f                	je     1ce7 <perf_trace_mm_vmscan_writepage+0xd7>
    1c68:	48 8b 45 08          	mov    0x8(%rbp),%rax
    1c6c:	4c 8b 4d d8          	mov    -0x28(%rbp),%r9
    1c70:	4c 89 e9             	mov    %r13,%rcx
    1c73:	be 1c 00 00 00       	mov    $0x1c,%esi
    1c78:	41 b8 01 00 00 00    	mov    $0x1,%r8d
    1c7e:	49 89 81 80 00 00 00 	mov    %rax,0x80(%r9)
    1c85:	48 89 d8             	mov    %rbx,%rax
    1c88:	48 2b 05 00 00 00 00 	sub    0x0(%rip),%rax        # 1c8f <perf_trace_mm_vmscan_writepage+0x7f>
    1c8f:	48 c1 f8 06          	sar    $0x6,%rax
    1c93:	49 89 a9 98 00 00 00 	mov    %rbp,0x98(%r9)
    1c9a:	49 c7 81 88 00 00 00 	movq   $0x10,0x88(%r9)
    1ca1:	10 00 00 00 
    1ca5:	49 c7 81 90 00 00 00 	movq   $0x0,0x90(%r9)
    1cac:	00 00 00 00 
    1cb0:	48 89 47 08          	mov    %rax,0x8(%rdi)

#ifndef __GENERATING_BOUNDS_H

static inline unsigned long _compound_head(const struct page *page)
{
	unsigned long head = READ_ONCE(page->compound_head);
    1cb4:	48 8b 43 08          	mov    0x8(%rbx),%rax

	if (unlikely(head & 1))
		return head - 1;
    1cb8:	a8 01                	test   $0x1,%al
    1cba:	48 8d 50 ff          	lea    -0x1(%rax),%rdx
    1cbe:	48 0f 45 da          	cmovne %rdx,%rbx
    1cc2:	8b 55 d4             	mov    -0x2c(%rbp),%edx
}

static __always_inline bool constant_test_bit(long nr, const volatile unsigned long *addr)
{
	return ((1UL << (nr & (BITS_PER_LONG-1))) &
		(addr[nr >> _BITOPS_LONG_SHIFT])) != 0;
    1cc5:	48 8b 03             	mov    (%rbx),%rax
    1cc8:	48 c1 e8 13          	shr    $0x13,%rax
    1ccc:	83 e0 01             	and    $0x1,%eax
    1ccf:	3c 01                	cmp    $0x1,%al
    1cd1:	b8 09 00 00 00       	mov    $0x9,%eax
    1cd6:	83 d0 00             	adc    $0x0,%eax
    1cd9:	89 47 10             	mov    %eax,0x10(%rdi)
    1cdc:	6a 00                	push   $0x0
    1cde:	41 54                	push   %r12
    1ce0:	e8 00 00 00 00       	call   1ce5 <perf_trace_mm_vmscan_writepage+0xd5>
    1ce5:	58                   	pop    %rax
    1ce6:	5a                   	pop    %rdx
    1ce7:	48 8b 45 e0          	mov    -0x20(%rbp),%rax
    1ceb:	65 48 2b 04 25 28 00 	sub    %gs:0x28,%rax
    1cf2:	00 00 
    1cf4:	75 1a                	jne    1d10 <perf_trace_mm_vmscan_writepage+0x100>
    1cf6:	48 8d 65 e8          	lea    -0x18(%rbp),%rsp
    1cfa:	5b                   	pop    %rbx
    1cfb:	41 5c                	pop    %r12
    1cfd:	41 5d                	pop    %r13
    1cff:	5d                   	pop    %rbp
    1d00:	c3                   	ret    
	return !READ_ONCE(h->first);
    1d01:	49 8b 04 24          	mov    (%r12),%rax
    1d05:	48 85 c0             	test   %rax,%rax
    1d08:	0f 85 40 ff ff ff    	jne    1c4e <perf_trace_mm_vmscan_writepage+0x3e>
    1d0e:	eb d7                	jmp    1ce7 <perf_trace_mm_vmscan_writepage+0xd7>
    1d10:	e8 00 00 00 00       	call   1d15 <perf_trace_mm_vmscan_writepage+0x105>
    1d15:	66 66 2e 0f 1f 84 00 	data16 cs nopw 0x0(%rax,%rax,1)
    1d1c:	00 00 00 00 

0000000000001d20 <do_shrink_slab>:
{
    1d20:	e8 00 00 00 00       	call   1d25 <do_shrink_slab+0x5>
    1d25:	55                   	push   %rbp
					  : SHRINK_BATCH;
    1d26:	b8 80 00 00 00       	mov    $0x80,%eax
{
    1d2b:	48 89 e5             	mov    %rsp,%rbp
    1d2e:	41 57                	push   %r15
    1d30:	49 89 f7             	mov    %rsi,%r15
    1d33:	41 56                	push   %r14
    1d35:	41 55                	push   %r13
    1d37:	41 54                	push   %r12
    1d39:	53                   	push   %rbx
    1d3a:	48 89 fb             	mov    %rdi,%rbx
    1d3d:	48 83 ec 30          	sub    $0x30,%rsp
	long batch_size = shrinker->batch ? shrinker->batch
    1d41:	4c 8b 6e 10          	mov    0x10(%rsi),%r13
{
    1d45:	89 55 d0             	mov    %edx,-0x30(%rbp)
					  : SHRINK_BATCH;
    1d48:	4d 85 ed             	test   %r13,%r13
    1d4b:	4c 0f 44 e8          	cmove  %rax,%r13
	freeable = shrinker->count_objects(shrinker, shrinkctl);
    1d4f:	48 8b 06             	mov    (%rsi),%rax
    1d52:	48 89 fe             	mov    %rdi,%rsi
    1d55:	4c 89 ff             	mov    %r15,%rdi
    1d58:	e8 00 00 00 00       	call   1d5d <do_shrink_slab+0x3d>
    1d5d:	49 89 c4             	mov    %rax,%r12
	if (freeable == 0 || freeable == SHRINK_EMPTY)
    1d60:	48 85 c0             	test   %rax,%rax
    1d63:	0f 84 5c 01 00 00    	je     1ec5 <do_shrink_slab+0x1a5>
    1d69:	48 83 f8 fe          	cmp    $0xfffffffffffffffe,%rax
    1d6d:	0f 84 52 01 00 00    	je     1ec5 <do_shrink_slab+0x1a5>
	if (!(shrinker->flags & SHRINKER_NUMA_AWARE))
    1d73:	41 8b 57 1c          	mov    0x1c(%r15),%edx
    1d77:	48 63 43 04          	movslq 0x4(%rbx),%rax
		nid = 0;
    1d7b:	31 f6                	xor    %esi,%esi
    1d7d:	48 8b 4b 18          	mov    0x18(%rbx),%rcx
    1d81:	f6 c2 02             	test   $0x2,%dl
    1d84:	48 0f 44 c6          	cmove  %rsi,%rax
	if (sc->memcg &&
    1d88:	48 85 c9             	test   %rcx,%rcx
    1d8b:	74 09                	je     1d96 <do_shrink_slab+0x76>
    1d8d:	83 e2 04             	and    $0x4,%edx
    1d90:	0f 85 dc 01 00 00    	jne    1f72 <do_shrink_slab+0x252>
	return atomic_long_xchg(&shrinker->nr_deferred[nid], 0);
    1d96:	49 8b 4f 38          	mov    0x38(%r15),%rcx
}
#define arch_atomic64_try_cmpxchg arch_atomic64_try_cmpxchg

static inline s64 arch_atomic64_xchg(atomic64_t *v, s64 new)
{
	return arch_xchg(&v->counter, new);
    1d9a:	31 d2                	xor    %edx,%edx
    1d9c:	48 87 14 c1          	xchg   %rdx,(%rcx,%rax,8)
    1da0:	48 89 55 b8          	mov    %rdx,-0x48(%rbp)
	if (shrinker->seeks) {
    1da4:	41 8b 57 18          	mov    0x18(%r15),%edx
		delta = freeable >> priority;
    1da8:	4c 89 e0             	mov    %r12,%rax
	if (shrinker->seeks) {
    1dab:	85 d2                	test   %edx,%edx
    1dad:	0f 84 6e 01 00 00    	je     1f21 <do_shrink_slab+0x201>
		delta = freeable >> priority;
    1db3:	0f b6 4d d0          	movzbl -0x30(%rbp),%ecx
    1db7:	48 d3 f8             	sar    %cl,%rax
		do_div(delta, shrinker->seeks);
    1dba:	89 d1                	mov    %edx,%ecx
    1dbc:	31 d2                	xor    %edx,%edx
		delta *= 4;
    1dbe:	48 c1 e0 02          	shl    $0x2,%rax
		do_div(delta, shrinker->seeks);
    1dc2:	48 f7 f1             	div    %rcx
    1dc5:	48 89 45 b0          	mov    %rax,-0x50(%rbp)
	total_scan = nr >> priority;
    1dc9:	4c 8b 55 b8          	mov    -0x48(%rbp),%r10
    1dcd:	0f b6 4d d0          	movzbl -0x30(%rbp),%ecx
	total_scan = min(total_scan, (2 * freeable));
    1dd1:	4b 8d 04 24          	lea    (%r12,%r12,1),%rax
    1dd5:	48 89 45 a8          	mov    %rax,-0x58(%rbp)
	total_scan = nr >> priority;
    1dd9:	49 d3 fa             	sar    %cl,%r10
	total_scan += delta;
    1ddc:	4c 03 55 b0          	add    -0x50(%rbp),%r10
	total_scan = min(total_scan, (2 * freeable));
    1de0:	49 39 c2             	cmp    %rax,%r10
    1de3:	4c 0f 4f d0          	cmovg  %rax,%r10
    1de7:	4d 89 d6             	mov    %r10,%r14

#ifdef CONFIG_STACK_VALIDATION

static __always_inline bool arch_static_branch(struct static_key *key, bool branch)
{
	asm_volatile_goto("1:"
    1dea:	0f 1f 44 00 00       	nopl   0x0(%rax,%rax,1)
	while (total_scan >= batch_size ||
    1def:	4d 39 e5             	cmp    %r12,%r13
    1df2:	48 c7 45 d0 00 00 00 	movq   $0x0,-0x30(%rbp)
    1df9:	00 
    1dfa:	4d 0f 4e e5          	cmovle %r13,%r12
    1dfe:	31 c9                	xor    %ecx,%ecx
    1e00:	31 d2                	xor    %edx,%edx
    1e02:	4c 89 e0             	mov    %r12,%rax
    1e05:	4c 89 65 c0          	mov    %r12,-0x40(%rbp)
    1e09:	45 31 e4             	xor    %r12d,%r12d
    1e0c:	49 39 c6             	cmp    %rax,%r14
    1e0f:	7d 30                	jge    1e41 <do_shrink_slab+0x121>
    1e11:	eb 5c                	jmp    1e6f <do_shrink_slab+0x14f>
		freed += ret;
    1e13:	49 01 c4             	add    %rax,%r12
	raw_cpu_add(vm_event_states.event[item], delta);
}

static inline void count_vm_events(enum vm_event_item item, long delta)
{
	this_cpu_add(vm_event_states.event[item], delta);
    1e16:	48 8b 43 10          	mov    0x10(%rbx),%rax
    1e1a:	65 48 01 05 00 00 00 	add    %rax,%gs:0x0(%rip)        # 1e22 <do_shrink_slab+0x102>
    1e21:	00 
		scanned += shrinkctl->nr_scanned;
    1e22:	48 03 53 10          	add    0x10(%rbx),%rdx
		total_scan -= shrinkctl->nr_scanned;
    1e26:	4c 2b 73 10          	sub    0x10(%rbx),%r14
		scanned += shrinkctl->nr_scanned;
    1e2a:	48 89 55 d0          	mov    %rdx,-0x30(%rbp)
    1e2e:	48 89 55 c8          	mov    %rdx,-0x38(%rbp)

#else

static inline int _cond_resched(void)
{
	return __cond_resched();
    1e32:	e8 00 00 00 00       	call   1e37 <do_shrink_slab+0x117>
	while (total_scan >= batch_size ||
    1e37:	4c 3b 75 c0          	cmp    -0x40(%rbp),%r14
    1e3b:	48 8b 55 c8          	mov    -0x38(%rbp),%rdx
    1e3f:	7c 2b                	jl     1e6c <do_shrink_slab+0x14c>
		unsigned long nr_to_scan = min(batch_size, total_scan);
    1e41:	4d 39 f5             	cmp    %r14,%r13
    1e44:	4c 89 f0             	mov    %r14,%rax
		ret = shrinker->scan_objects(shrinker, shrinkctl);
    1e47:	48 89 de             	mov    %rbx,%rsi
    1e4a:	4c 89 ff             	mov    %r15,%rdi
		unsigned long nr_to_scan = min(batch_size, total_scan);
    1e4d:	49 0f 4e c5          	cmovle %r13,%rax
		shrinkctl->nr_to_scan = nr_to_scan;
    1e51:	48 89 43 08          	mov    %rax,0x8(%rbx)
		shrinkctl->nr_scanned = nr_to_scan;
    1e55:	48 89 43 10          	mov    %rax,0x10(%rbx)
		ret = shrinker->scan_objects(shrinker, shrinkctl);
    1e59:	49 8b 47 08          	mov    0x8(%r15),%rax
    1e5d:	e8 00 00 00 00       	call   1e62 <do_shrink_slab+0x142>
		scanned += shrinkctl->nr_scanned;
    1e62:	48 8b 55 d0          	mov    -0x30(%rbp),%rdx
		if (ret == SHRINK_STOP)
    1e66:	48 83 f8 ff          	cmp    $0xffffffffffffffff,%rax
    1e6a:	75 a7                	jne    1e13 <do_shrink_slab+0xf3>
	trace_mm_shrink_slab_end(shrinker, shrinkctl->nid, freed, nr, new_nr, total_scan);
    1e6c:	44 89 e1             	mov    %r12d,%ecx
	next_deferred = max_t(long, (nr + delta - scanned), 0);
    1e6f:	48 8b 45 b0          	mov    -0x50(%rbp),%rax
    1e73:	48 03 45 b8          	add    -0x48(%rbp),%rax
    1e77:	48 29 d0             	sub    %rdx,%rax
    1e7a:	ba 00 00 00 00       	mov    $0x0,%edx
	next_deferred = min(next_deferred, (2 * freeable));
    1e7f:	48 8b 7d a8          	mov    -0x58(%rbp),%rdi
	if (!(shrinker->flags & SHRINKER_NUMA_AWARE))
    1e83:	41 8b 77 1c          	mov    0x1c(%r15),%esi
	next_deferred = max_t(long, (nr + delta - scanned), 0);
    1e87:	48 0f 48 c2          	cmovs  %rdx,%rax
    1e8b:	48 63 53 04          	movslq 0x4(%rbx),%rdx
	next_deferred = min(next_deferred, (2 * freeable));
    1e8f:	48 39 f8             	cmp    %rdi,%rax
    1e92:	48 0f 4f c7          	cmovg  %rdi,%rax
	new_nr = add_nr_deferred(next_deferred, shrinker, shrinkctl);
    1e96:	48 8b 7b 18          	mov    0x18(%rbx),%rdi
		nid = 0;
    1e9a:	45 31 c0             	xor    %r8d,%r8d
    1e9d:	40 f6 c6 02          	test   $0x2,%sil
    1ea1:	49 0f 44 d0          	cmove  %r8,%rdx
	if (sc->memcg &&
    1ea5:	48 85 ff             	test   %rdi,%rdi
    1ea8:	74 09                	je     1eb3 <do_shrink_slab+0x193>
    1eaa:	83 e6 04             	and    $0x4,%esi
    1ead:	0f 85 e5 00 00 00    	jne    1f98 <do_shrink_slab+0x278>
	return atomic_long_add_return(nr, &shrinker->nr_deferred[nid]);
    1eb3:	49 8b 77 38          	mov    0x38(%r15),%rsi
	return i + xadd(&v->counter, i);
    1eb7:	49 89 c1             	mov    %rax,%r9
    1eba:	f0 4c 0f c1 0c d6    	lock xadd %r9,(%rsi,%rdx,8)
    1ec0:	49 01 c1             	add    %rax,%r9
    1ec3:	66 90                	xchg   %ax,%ax
}
    1ec5:	48 8d 65 d8          	lea    -0x28(%rbp),%rsp
    1ec9:	4c 89 e0             	mov    %r12,%rax
    1ecc:	5b                   	pop    %rbx
    1ecd:	41 5c                	pop    %r12
    1ecf:	41 5d                	pop    %r13
    1ed1:	41 5e                	pop    %r14
    1ed3:	41 5f                	pop    %r15
    1ed5:	5d                   	pop    %rbp
    1ed6:	c3                   	ret    
TRACE_EVENT(mm_shrink_slab_start,
    1ed7:	65 8b 05 00 00 00 00 	mov    %gs:0x0(%rip),%eax        # 1ede <do_shrink_slab+0x1be>
 *
 * Returns 1 if @cpu is set in @cpumask, else returns 0
 */
static inline int cpumask_test_cpu(int cpu, const struct cpumask *cpumask)
{
	return test_bit(cpumask_check(cpu), cpumask_bits((cpumask)));
    1ede:	89 c0                	mov    %eax,%eax

static __always_inline bool variable_test_bit(long nr, volatile const unsigned long *addr)
{
	bool oldbit;

	asm volatile(__ASM_SIZE(bt) " %2,%1"
    1ee0:	48 0f a3 05 00 00 00 	bt     %rax,0x0(%rip)        # 1ee8 <do_shrink_slab+0x1c8>
    1ee7:	00 
    1ee8:	0f 83 01 ff ff ff    	jae    1def <do_shrink_slab+0xcf>
    1eee:	48 8b 05 00 00 00 00 	mov    0x0(%rip),%rax        # 1ef5 <do_shrink_slab+0x1d5>
    1ef5:	48 85 c0             	test   %rax,%rax
    1ef8:	74 22                	je     1f1c <do_shrink_slab+0x1fc>
    1efa:	48 8b 78 08          	mov    0x8(%rax),%rdi
    1efe:	8b 45 d0             	mov    -0x30(%rbp),%eax
    1f01:	48 89 da             	mov    %rbx,%rdx
    1f04:	4d 89 e0             	mov    %r12,%r8
    1f07:	48 8b 4d b8          	mov    -0x48(%rbp),%rcx
    1f0b:	4c 8b 4d b0          	mov    -0x50(%rbp),%r9
    1f0f:	4c 89 fe             	mov    %r15,%rsi
    1f12:	50                   	push   %rax
    1f13:	41 52                	push   %r10
    1f15:	e8 00 00 00 00       	call   1f1a <do_shrink_slab+0x1fa>
    1f1a:	5a                   	pop    %rdx
    1f1b:	59                   	pop    %rcx
    1f1c:	e9 ce fe ff ff       	jmp    1def <do_shrink_slab+0xcf>
		delta = freeable / 2;
    1f21:	48 c1 e8 3f          	shr    $0x3f,%rax
    1f25:	4c 01 e0             	add    %r12,%rax
    1f28:	48 d1 f8             	sar    %rax
    1f2b:	48 89 45 b0          	mov    %rax,-0x50(%rbp)
    1f2f:	e9 95 fe ff ff       	jmp    1dc9 <do_shrink_slab+0xa9>
	trace_mm_shrink_slab_end(shrinker, shrinkctl->nid, freed, nr, new_nr, total_scan);
    1f34:	8b 53 04             	mov    0x4(%rbx),%edx
TRACE_EVENT(mm_shrink_slab_end,
    1f37:	65 8b 05 00 00 00 00 	mov    %gs:0x0(%rip),%eax        # 1f3e <do_shrink_slab+0x21e>
    1f3e:	89 c0                	mov    %eax,%eax
    1f40:	48 0f a3 05 00 00 00 	bt     %rax,0x0(%rip)        # 1f48 <do_shrink_slab+0x228>
    1f47:	00 
    1f48:	0f 83 77 ff ff ff    	jae    1ec5 <do_shrink_slab+0x1a5>
    1f4e:	48 8b 05 00 00 00 00 	mov    0x0(%rip),%rax        # 1f55 <do_shrink_slab+0x235>
    1f55:	48 85 c0             	test   %rax,%rax
    1f58:	74 13                	je     1f6d <do_shrink_slab+0x24d>
    1f5a:	48 8b 78 08          	mov    0x8(%rax),%rdi
    1f5e:	4c 8b 45 b8          	mov    -0x48(%rbp),%r8
    1f62:	41 56                	push   %r14
    1f64:	4c 89 fe             	mov    %r15,%rsi
    1f67:	e8 00 00 00 00       	call   1f6c <do_shrink_slab+0x24c>
    1f6c:	58                   	pop    %rax
    1f6d:	e9 53 ff ff ff       	jmp    1ec5 <do_shrink_slab+0x1a5>
	return rcu_dereference_protected(memcg->nodeinfo[nid]->shrinker_info,
    1f72:	48 8b 84 c1 78 10 00 	mov    0x1078(%rcx,%rax,8),%rax
    1f79:	00 
	return atomic_long_xchg(&info->nr_deferred[shrinker->id], 0);
    1f7a:	49 63 4f 30          	movslq 0x30(%r15),%rcx
    1f7e:	48 8b 80 20 05 00 00 	mov    0x520(%rax),%rax
    1f85:	48 8b 50 10          	mov    0x10(%rax),%rdx
	return arch_xchg(&v->counter, new);
    1f89:	31 c0                	xor    %eax,%eax
    1f8b:	48 87 04 ca          	xchg   %rax,(%rdx,%rcx,8)
    1f8f:	48 89 45 b8          	mov    %rax,-0x48(%rbp)
		return xchg_nr_deferred_memcg(nid, shrinker,
    1f93:	e9 0c fe ff ff       	jmp    1da4 <do_shrink_slab+0x84>
	return rcu_dereference_protected(memcg->nodeinfo[nid]->shrinker_info,
    1f98:	48 8b 94 d7 78 10 00 	mov    0x1078(%rdi,%rdx,8),%rdx
    1f9f:	00 
	return atomic_long_add_return(nr, &info->nr_deferred[shrinker->id]);
    1fa0:	49 63 7f 30          	movslq 0x30(%r15),%rdi
    1fa4:	48 8b 92 20 05 00 00 	mov    0x520(%rdx),%rdx
    1fab:	48 8b 72 10          	mov    0x10(%rdx),%rsi
	return i + xadd(&v->counter, i);
    1faf:	48 89 c2             	mov    %rax,%rdx
    1fb2:	f0 48 0f c1 14 fe    	lock xadd %rdx,(%rsi,%rdi,8)
    1fb8:	4c 8d 0c 10          	lea    (%rax,%rdx,1),%r9
		return add_nr_deferred_memcg(nr, nid, shrinker,
    1fbc:	e9 02 ff ff ff       	jmp    1ec3 <do_shrink_slab+0x1a3>
    1fc1:	66 66 2e 0f 1f 84 00 	data16 cs nopw 0x0(%rax,%rax,1)
    1fc8:	00 00 00 00 
    1fcc:	0f 1f 40 00          	nopl   0x0(%rax)

0000000000001fd0 <prepare_kswapd_sleep>:
{
    1fd0:	e8 00 00 00 00       	call   1fd5 <prepare_kswapd_sleep+0x5>
    1fd5:	55                   	push   %rbp
 * Also note that this 'optimization' trades a spin_lock() for an smp_mb(),
 * which (when the lock is uncontended) are of roughly equal cost.
 */
static inline int waitqueue_active(struct wait_queue_head *wq_head)
{
	return !list_empty(&wq_head->head);
    1fd6:	48 8d 87 28 a2 02 00 	lea    0x2a228(%rdi),%rax
    1fdd:	48 89 e5             	mov    %rsp,%rbp
    1fe0:	41 55                	push   %r13
    1fe2:	41 89 d5             	mov    %edx,%r13d
    1fe5:	41 54                	push   %r12
    1fe7:	41 89 f4             	mov    %esi,%r12d
    1fea:	53                   	push   %rbx
	return READ_ONCE(head->next) == head;
    1feb:	48 8b 97 28 a2 02 00 	mov    0x2a228(%rdi),%rdx
    1ff2:	48 89 fb             	mov    %rdi,%rbx
	if (waitqueue_active(&pgdat->pfmemalloc_wait))
    1ff5:	48 39 c2             	cmp    %rax,%rdx
    1ff8:	74 15                	je     200f <prepare_kswapd_sleep+0x3f>
    1ffa:	48 81 c7 20 a2 02 00 	add    $0x2a220,%rdi
		wake_up_all(&pgdat->pfmemalloc_wait);
    2001:	31 c9                	xor    %ecx,%ecx
    2003:	31 d2                	xor    %edx,%edx
    2005:	be 03 00 00 00       	mov    $0x3,%esi
    200a:	e8 00 00 00 00       	call   200f <prepare_kswapd_sleep+0x3f>
	if (pgdat->kswapd_failures >= MAX_RECLAIM_RETRIES)
    200f:	83 bb 48 a2 02 00 0f 	cmpl   $0xf,0x2a248(%rbx)
		return true;
    2016:	b8 01 00 00 00       	mov    $0x1,%eax
	if (pgdat->kswapd_failures >= MAX_RECLAIM_RETRIES)
    201b:	7e 07                	jle    2024 <prepare_kswapd_sleep+0x54>
}
    201d:	5b                   	pop    %rbx
    201e:	41 5c                	pop    %r12
    2020:	41 5d                	pop    %r13
    2022:	5d                   	pop    %rbp
    2023:	c3                   	ret    
	if (pgdat_balanced(pgdat, order, highest_zoneidx)) {
    2024:	44 89 ea             	mov    %r13d,%edx
    2027:	44 89 e6             	mov    %r12d,%esi
    202a:	48 89 df             	mov    %rbx,%rdi
    202d:	e8 be f9 ff ff       	call   19f0 <pgdat_balanced>
    2032:	84 c0                	test   %al,%al
    2034:	74 e7                	je     201d <prepare_kswapd_sleep+0x4d>
    2036:	66 90                	xchg   %ax,%ax

	if (!memcg)
		memcg = root_mem_cgroup;

	mz = memcg->nodeinfo[pgdat->node_id];
	lruvec = &mz->lruvec;
    2038:	48 8b 15 00 00 00 00 	mov    0x0(%rip),%rdx        # 203f <prepare_kswapd_sleep+0x6f>
	mz = memcg->nodeinfo[pgdat->node_id];
    203f:	48 63 8b 00 a2 02 00 	movslq 0x2a200(%rbx),%rcx
	lruvec = &mz->lruvec;
    2046:	48 8b 94 ca 78 10 00 	mov    0x1078(%rdx,%rcx,8),%rdx
    204d:	00 
	/*
	 * Since a node can be onlined after the mem_cgroup was created,
	 * we have to be prepared to initialize lruvec->pgdat here;
	 * and if offlined then reonlined, we need to reinitialize it.
	 */
	if (unlikely(lruvec->pgdat != pgdat))
    204e:	48 3b 9a 88 00 00 00 	cmp    0x88(%rdx),%rbx
    2055:	75 23                	jne    207a <prepare_kswapd_sleep+0xaa>
		asm volatile(LOCK_PREFIX "andb %b1,%0"
    2057:	f0 80 a2 80 00 00 00 	lock andb $0xfe,0x80(%rdx)
    205e:	fe 
    205f:	f0 80 a3 d0 ab 02 00 	lock andb $0xfe,0x2abd0(%rbx)
    2066:	fe 
    2067:	f0 80 a3 d0 ab 02 00 	lock andb $0xfd,0x2abd0(%rbx)
    206e:	fd 
		return true;
    206f:	eb ac                	jmp    201d <prepare_kswapd_sleep+0x4d>
		lruvec = &pgdat->__lruvec;
    2071:	48 8d 93 40 ab 02 00 	lea    0x2ab40(%rbx),%rdx
		goto out;
    2078:	eb d4                	jmp    204e <prepare_kswapd_sleep+0x7e>
		lruvec->pgdat = pgdat;
    207a:	48 89 9a 88 00 00 00 	mov    %rbx,0x88(%rdx)
    2081:	eb d4                	jmp    2057 <prepare_kswapd_sleep+0x87>
    2083:	66 66 2e 0f 1f 84 00 	data16 cs nopw 0x0(%rax,%rax,1)
    208a:	00 00 00 00 
    208e:	66 90                	xchg   %ax,%ax

0000000000002090 <inactive_is_low>:
{
    2090:	e8 00 00 00 00       	call   2095 <inactive_is_low+0x5>
    2095:	55                   	push   %rbp
    2096:	48 89 e5             	mov    %rsp,%rbp
    2099:	41 55                	push   %r13
    209b:	41 54                	push   %r12
	enum lru_list active_lru = inactive_lru + LRU_ACTIVE;
    209d:	44 8d 66 01          	lea    0x1(%rsi),%r12d
{
    20a1:	53                   	push   %rbx
    20a2:	48 89 fb             	mov    %rdi,%rbx
    20a5:	66 90                	xchg   %ax,%ax

	if (mem_cgroup_disabled())
		return node_page_state(lruvec_pgdat(lruvec), idx);

	pn = container_of(lruvec, struct mem_cgroup_per_node, lruvec);
	return READ_ONCE(pn->lruvec_stats.state[idx]);
    20a7:	89 f6                	mov    %esi,%esi
    20a9:	48 83 c6 12          	add    $0x12,%rsi
    20ad:	4c 8b 6c f7 08       	mov    0x8(%rdi,%rsi,8),%r13
    20b2:	66 90                	xchg   %ax,%ax
    20b4:	49 83 c4 12          	add    $0x12,%r12
    20b8:	4a 8b 5c e3 08       	mov    0x8(%rbx,%r12,8),%rbx
	gb = (inactive + active) >> (30 - PAGE_SHIFT);
    20bd:	4a 8d 14 2b          	lea    (%rbx,%r13,1),%rdx
	if (gb)
    20c1:	48 c1 ea 12          	shr    $0x12,%rdx
    20c5:	75 3a                	jne    2101 <inactive_is_low+0x71>
	return inactive * inactive_ratio < active;
    20c7:	4c 39 eb             	cmp    %r13,%rbx
}
    20ca:	5b                   	pop    %rbx
    20cb:	41 5c                	pop    %r12
	return inactive * inactive_ratio < active;
    20cd:	0f 97 c0             	seta   %al
}
    20d0:	41 5d                	pop    %r13
    20d2:	5d                   	pop    %rbp
    20d3:	c3                   	ret    
		return node_page_state(lruvec_pgdat(lruvec), idx);
    20d4:	48 8b bf 88 00 00 00 	mov    0x88(%rdi),%rdi
    20db:	e8 00 00 00 00       	call   20e0 <inactive_is_low+0x50>
    20e0:	49 89 c5             	mov    %rax,%r13
    20e3:	eb cd                	jmp    20b2 <inactive_is_low+0x22>
    20e5:	48 8b bb 88 00 00 00 	mov    0x88(%rbx),%rdi
    20ec:	44 89 e6             	mov    %r12d,%esi
    20ef:	e8 00 00 00 00       	call   20f4 <inactive_is_low+0x64>
    20f4:	48 89 c3             	mov    %rax,%rbx
	gb = (inactive + active) >> (30 - PAGE_SHIFT);
    20f7:	4a 8d 14 2b          	lea    (%rbx,%r13,1),%rdx
	if (gb)
    20fb:	48 c1 ea 12          	shr    $0x12,%rdx
    20ff:	74 c6                	je     20c7 <inactive_is_low+0x37>
		inactive_ratio = int_sqrt(10 * gb);
    2101:	48 8d 3c 92          	lea    (%rdx,%rdx,4),%rdi
    2105:	48 01 ff             	add    %rdi,%rdi
    2108:	e8 00 00 00 00       	call   210d <inactive_is_low+0x7d>
	return inactive * inactive_ratio < active;
    210d:	4c 0f af e8          	imul   %rax,%r13
    2111:	4c 39 eb             	cmp    %r13,%rbx
}
    2114:	5b                   	pop    %rbx
    2115:	41 5c                	pop    %r12
	return inactive * inactive_ratio < active;
    2117:	0f 97 c0             	seta   %al
}
    211a:	41 5d                	pop    %r13
    211c:	5d                   	pop    %rbp
    211d:	c3                   	ret    
    211e:	66 90                	xchg   %ax,%ax

0000000000002120 <trace_event_raw_event_mm_vmscan_kswapd_sleep>:
TRACE_EVENT(mm_vmscan_kswapd_sleep,
    2120:	55                   	push   %rbp
    2121:	48 89 e5             	mov    %rsp,%rbp
    2124:	41 55                	push   %r13
    2126:	41 89 f5             	mov    %esi,%r13d
    2129:	41 54                	push   %r12
    212b:	49 89 fc             	mov    %rdi,%r12
    212e:	53                   	push   %rbx
    212f:	48 83 ec 38          	sub    $0x38,%rsp
	unsigned long eflags = file->flags;
    2133:	48 8b 5f 48          	mov    0x48(%rdi),%rbx
    2137:	65 48 8b 04 25 28 00 	mov    %gs:0x28,%rax
    213e:	00 00 
    2140:	48 89 45 e0          	mov    %rax,-0x20(%rbp)
    2144:	31 c0                	xor    %eax,%eax
	if (!(eflags & EVENT_FILE_FL_TRIGGER_COND)) {
    2146:	f6 c7 01             	test   $0x1,%bh
    2149:	75 0f                	jne    215a <trace_event_raw_event_mm_vmscan_kswapd_sleep+0x3a>
		if (eflags & EVENT_FILE_FL_TRIGGER_MODE)
    214b:	f6 c3 80             	test   $0x80,%bl
    214e:	75 47                	jne    2197 <trace_event_raw_event_mm_vmscan_kswapd_sleep+0x77>
		if (eflags & EVENT_FILE_FL_SOFT_DISABLED)
    2150:	f6 c3 40             	test   $0x40,%bl
    2153:	75 28                	jne    217d <trace_event_raw_event_mm_vmscan_kswapd_sleep+0x5d>
		if (eflags & EVENT_FILE_FL_PID_FILTER)
    2155:	80 e7 02             	and    $0x2,%bh
    2158:	75 4f                	jne    21a9 <trace_event_raw_event_mm_vmscan_kswapd_sleep+0x89>
    215a:	ba 0c 00 00 00       	mov    $0xc,%edx
    215f:	4c 89 e6             	mov    %r12,%rsi
    2162:	48 8d 7d b0          	lea    -0x50(%rbp),%rdi
    2166:	e8 00 00 00 00       	call   216b <trace_event_raw_event_mm_vmscan_kswapd_sleep+0x4b>
    216b:	48 85 c0             	test   %rax,%rax
    216e:	74 0d                	je     217d <trace_event_raw_event_mm_vmscan_kswapd_sleep+0x5d>
    2170:	44 89 68 08          	mov    %r13d,0x8(%rax)
    2174:	48 8d 7d b0          	lea    -0x50(%rbp),%rdi
    2178:	e8 00 00 00 00       	call   217d <trace_event_raw_event_mm_vmscan_kswapd_sleep+0x5d>
    217d:	48 8b 45 e0          	mov    -0x20(%rbp),%rax
    2181:	65 48 2b 04 25 28 00 	sub    %gs:0x28,%rax
    2188:	00 00 
    218a:	75 2b                	jne    21b7 <trace_event_raw_event_mm_vmscan_kswapd_sleep+0x97>
    218c:	48 83 c4 38          	add    $0x38,%rsp
    2190:	5b                   	pop    %rbx
    2191:	41 5c                	pop    %r12
    2193:	41 5d                	pop    %r13
    2195:	5d                   	pop    %rbp
    2196:	c3                   	ret    
			event_triggers_call(file, NULL, NULL, NULL);
    2197:	31 c9                	xor    %ecx,%ecx
    2199:	31 d2                	xor    %edx,%edx
    219b:	31 f6                	xor    %esi,%esi
    219d:	e8 00 00 00 00       	call   21a2 <trace_event_raw_event_mm_vmscan_kswapd_sleep+0x82>
		if (eflags & EVENT_FILE_FL_SOFT_DISABLED)
    21a2:	f6 c3 40             	test   $0x40,%bl
    21a5:	74 ae                	je     2155 <trace_event_raw_event_mm_vmscan_kswapd_sleep+0x35>
    21a7:	eb d4                	jmp    217d <trace_event_raw_event_mm_vmscan_kswapd_sleep+0x5d>
			return trace_event_ignore_this_pid(file);
    21a9:	4c 89 e7             	mov    %r12,%rdi
    21ac:	e8 00 00 00 00       	call   21b1 <trace_event_raw_event_mm_vmscan_kswapd_sleep+0x91>
    21b1:	84 c0                	test   %al,%al
    21b3:	75 c8                	jne    217d <trace_event_raw_event_mm_vmscan_kswapd_sleep+0x5d>
    21b5:	eb a3                	jmp    215a <trace_event_raw_event_mm_vmscan_kswapd_sleep+0x3a>
    21b7:	e8 00 00 00 00       	call   21bc <trace_event_raw_event_mm_vmscan_kswapd_sleep+0x9c>
    21bc:	0f 1f 40 00          	nopl   0x0(%rax)

00000000000021c0 <trace_event_raw_event_mm_vmscan_direct_reclaim_end_template>:
DECLARE_EVENT_CLASS(mm_vmscan_direct_reclaim_end_template,
    21c0:	55                   	push   %rbp
    21c1:	48 89 e5             	mov    %rsp,%rbp
    21c4:	41 55                	push   %r13
    21c6:	49 89 f5             	mov    %rsi,%r13
    21c9:	41 54                	push   %r12
    21cb:	49 89 fc             	mov    %rdi,%r12
    21ce:	53                   	push   %rbx
    21cf:	48 83 ec 38          	sub    $0x38,%rsp
	unsigned long eflags = file->flags;
    21d3:	48 8b 5f 48          	mov    0x48(%rdi),%rbx
    21d7:	65 48 8b 04 25 28 00 	mov    %gs:0x28,%rax
    21de:	00 00 
    21e0:	48 89 45 e0          	mov    %rax,-0x20(%rbp)
    21e4:	31 c0                	xor    %eax,%eax
	if (!(eflags & EVENT_FILE_FL_TRIGGER_COND)) {
    21e6:	f6 c7 01             	test   $0x1,%bh
    21e9:	75 0f                	jne    21fa <trace_event_raw_event_mm_vmscan_direct_reclaim_end_template+0x3a>
		if (eflags & EVENT_FILE_FL_TRIGGER_MODE)
    21eb:	f6 c3 80             	test   $0x80,%bl
    21ee:	75 47                	jne    2237 <trace_event_raw_event_mm_vmscan_direct_reclaim_end_template+0x77>
		if (eflags & EVENT_FILE_FL_SOFT_DISABLED)
    21f0:	f6 c3 40             	test   $0x40,%bl
    21f3:	75 28                	jne    221d <trace_event_raw_event_mm_vmscan_direct_reclaim_end_template+0x5d>
		if (eflags & EVENT_FILE_FL_PID_FILTER)
    21f5:	80 e7 02             	and    $0x2,%bh
    21f8:	75 4f                	jne    2249 <trace_event_raw_event_mm_vmscan_direct_reclaim_end_template+0x89>
    21fa:	ba 10 00 00 00       	mov    $0x10,%edx
    21ff:	4c 89 e6             	mov    %r12,%rsi
    2202:	48 8d 7d b0          	lea    -0x50(%rbp),%rdi
    2206:	e8 00 00 00 00       	call   220b <trace_event_raw_event_mm_vmscan_direct_reclaim_end_template+0x4b>
    220b:	48 85 c0             	test   %rax,%rax
    220e:	74 0d                	je     221d <trace_event_raw_event_mm_vmscan_direct_reclaim_end_template+0x5d>
    2210:	4c 89 68 08          	mov    %r13,0x8(%rax)
    2214:	48 8d 7d b0          	lea    -0x50(%rbp),%rdi
    2218:	e8 00 00 00 00       	call   221d <trace_event_raw_event_mm_vmscan_direct_reclaim_end_template+0x5d>
    221d:	48 8b 45 e0          	mov    -0x20(%rbp),%rax
    2221:	65 48 2b 04 25 28 00 	sub    %gs:0x28,%rax
    2228:	00 00 
    222a:	75 2b                	jne    2257 <trace_event_raw_event_mm_vmscan_direct_reclaim_end_template+0x97>
    222c:	48 83 c4 38          	add    $0x38,%rsp
    2230:	5b                   	pop    %rbx
    2231:	41 5c                	pop    %r12
    2233:	41 5d                	pop    %r13
    2235:	5d                   	pop    %rbp
    2236:	c3                   	ret    
			event_triggers_call(file, NULL, NULL, NULL);
    2237:	31 c9                	xor    %ecx,%ecx
    2239:	31 d2                	xor    %edx,%edx
    223b:	31 f6                	xor    %esi,%esi
    223d:	e8 00 00 00 00       	call   2242 <trace_event_raw_event_mm_vmscan_direct_reclaim_end_template+0x82>
		if (eflags & EVENT_FILE_FL_SOFT_DISABLED)
    2242:	f6 c3 40             	test   $0x40,%bl
    2245:	74 ae                	je     21f5 <trace_event_raw_event_mm_vmscan_direct_reclaim_end_template+0x35>
    2247:	eb d4                	jmp    221d <trace_event_raw_event_mm_vmscan_direct_reclaim_end_template+0x5d>
			return trace_event_ignore_this_pid(file);
    2249:	4c 89 e7             	mov    %r12,%rdi
    224c:	e8 00 00 00 00       	call   2251 <trace_event_raw_event_mm_vmscan_direct_reclaim_end_template+0x91>
    2251:	84 c0                	test   %al,%al
    2253:	75 c8                	jne    221d <trace_event_raw_event_mm_vmscan_direct_reclaim_end_template+0x5d>
    2255:	eb a3                	jmp    21fa <trace_event_raw_event_mm_vmscan_direct_reclaim_end_template+0x3a>
    2257:	e8 00 00 00 00       	call   225c <trace_event_raw_event_mm_vmscan_direct_reclaim_end_template+0x9c>
    225c:	0f 1f 40 00          	nopl   0x0(%rax)

0000000000002260 <trace_event_raw_event_mm_vmscan_direct_reclaim_begin_template>:
DECLARE_EVENT_CLASS(mm_vmscan_direct_reclaim_begin_template,
    2260:	55                   	push   %rbp
    2261:	48 89 e5             	mov    %rsp,%rbp
    2264:	41 56                	push   %r14
    2266:	41 55                	push   %r13
    2268:	41 89 f5             	mov    %esi,%r13d
    226b:	41 54                	push   %r12
    226d:	49 89 fc             	mov    %rdi,%r12
    2270:	53                   	push   %rbx
    2271:	89 d3                	mov    %edx,%ebx
    2273:	48 83 ec 38          	sub    $0x38,%rsp
	unsigned long eflags = file->flags;
    2277:	4c 8b 77 48          	mov    0x48(%rdi),%r14
    227b:	65 48 8b 04 25 28 00 	mov    %gs:0x28,%rax
    2282:	00 00 
    2284:	48 89 45 d8          	mov    %rax,-0x28(%rbp)
    2288:	31 c0                	xor    %eax,%eax
	if (!(eflags & EVENT_FILE_FL_TRIGGER_COND)) {
    228a:	41 f7 c6 00 01 00 00 	test   $0x100,%r14d
    2291:	75 15                	jne    22a8 <trace_event_raw_event_mm_vmscan_direct_reclaim_begin_template+0x48>
		if (eflags & EVENT_FILE_FL_TRIGGER_MODE)
    2293:	41 f6 c6 80          	test   $0x80,%r14b
    2297:	75 51                	jne    22ea <trace_event_raw_event_mm_vmscan_direct_reclaim_begin_template+0x8a>
		if (eflags & EVENT_FILE_FL_SOFT_DISABLED)
    2299:	41 f6 c6 40          	test   $0x40,%r14b
    229d:	75 2f                	jne    22ce <trace_event_raw_event_mm_vmscan_direct_reclaim_begin_template+0x6e>
		if (eflags & EVENT_FILE_FL_PID_FILTER)
    229f:	41 f7 c6 00 02 00 00 	test   $0x200,%r14d
    22a6:	75 55                	jne    22fd <trace_event_raw_event_mm_vmscan_direct_reclaim_begin_template+0x9d>
    22a8:	ba 10 00 00 00       	mov    $0x10,%edx
    22ad:	4c 89 e6             	mov    %r12,%rsi
    22b0:	48 8d 7d a8          	lea    -0x58(%rbp),%rdi
    22b4:	e8 00 00 00 00       	call   22b9 <trace_event_raw_event_mm_vmscan_direct_reclaim_begin_template+0x59>
    22b9:	48 85 c0             	test   %rax,%rax
    22bc:	74 10                	je     22ce <trace_event_raw_event_mm_vmscan_direct_reclaim_begin_template+0x6e>
    22be:	44 89 68 08          	mov    %r13d,0x8(%rax)
    22c2:	48 8d 7d a8          	lea    -0x58(%rbp),%rdi
    22c6:	89 58 0c             	mov    %ebx,0xc(%rax)
    22c9:	e8 00 00 00 00       	call   22ce <trace_event_raw_event_mm_vmscan_direct_reclaim_begin_template+0x6e>
    22ce:	48 8b 45 d8          	mov    -0x28(%rbp),%rax
    22d2:	65 48 2b 04 25 28 00 	sub    %gs:0x28,%rax
    22d9:	00 00 
    22db:	75 2e                	jne    230b <trace_event_raw_event_mm_vmscan_direct_reclaim_begin_template+0xab>
    22dd:	48 83 c4 38          	add    $0x38,%rsp
    22e1:	5b                   	pop    %rbx
    22e2:	41 5c                	pop    %r12
    22e4:	41 5d                	pop    %r13
    22e6:	41 5e                	pop    %r14
    22e8:	5d                   	pop    %rbp
    22e9:	c3                   	ret    
			event_triggers_call(file, NULL, NULL, NULL);
    22ea:	31 c9                	xor    %ecx,%ecx
    22ec:	31 d2                	xor    %edx,%edx
    22ee:	31 f6                	xor    %esi,%esi
    22f0:	e8 00 00 00 00       	call   22f5 <trace_event_raw_event_mm_vmscan_direct_reclaim_begin_template+0x95>
		if (eflags & EVENT_FILE_FL_SOFT_DISABLED)
    22f5:	41 f6 c6 40          	test   $0x40,%r14b
    22f9:	74 a4                	je     229f <trace_event_raw_event_mm_vmscan_direct_reclaim_begin_template+0x3f>
    22fb:	eb d1                	jmp    22ce <trace_event_raw_event_mm_vmscan_direct_reclaim_begin_template+0x6e>
			return trace_event_ignore_this_pid(file);
    22fd:	4c 89 e7             	mov    %r12,%rdi
    2300:	e8 00 00 00 00       	call   2305 <trace_event_raw_event_mm_vmscan_direct_reclaim_begin_template+0xa5>
    2305:	84 c0                	test   %al,%al
    2307:	75 c5                	jne    22ce <trace_event_raw_event_mm_vmscan_direct_reclaim_begin_template+0x6e>
    2309:	eb 9d                	jmp    22a8 <trace_event_raw_event_mm_vmscan_direct_reclaim_begin_template+0x48>
    230b:	e8 00 00 00 00       	call   2310 <trace_event_raw_event_mm_vmscan_kswapd_wake>

0000000000002310 <trace_event_raw_event_mm_vmscan_kswapd_wake>:
TRACE_EVENT(mm_vmscan_kswapd_wake,
    2310:	55                   	push   %rbp
    2311:	48 89 e5             	mov    %rsp,%rbp
    2314:	41 57                	push   %r15
    2316:	41 56                	push   %r14
    2318:	41 89 f6             	mov    %esi,%r14d
    231b:	41 55                	push   %r13
    231d:	41 89 d5             	mov    %edx,%r13d
    2320:	41 54                	push   %r12
    2322:	49 89 fc             	mov    %rdi,%r12
    2325:	53                   	push   %rbx
    2326:	89 cb                	mov    %ecx,%ebx
    2328:	48 83 ec 38          	sub    $0x38,%rsp
	unsigned long eflags = file->flags;
    232c:	4c 8b 7f 48          	mov    0x48(%rdi),%r15
    2330:	65 48 8b 04 25 28 00 	mov    %gs:0x28,%rax
    2337:	00 00 
    2339:	48 89 45 d0          	mov    %rax,-0x30(%rbp)
    233d:	31 c0                	xor    %eax,%eax
	if (!(eflags & EVENT_FILE_FL_TRIGGER_COND)) {
    233f:	41 f7 c7 00 01 00 00 	test   $0x100,%r15d
    2346:	75 15                	jne    235d <trace_event_raw_event_mm_vmscan_kswapd_wake+0x4d>
		if (eflags & EVENT_FILE_FL_TRIGGER_MODE)
    2348:	41 f6 c7 80          	test   $0x80,%r15b
    234c:	75 57                	jne    23a5 <trace_event_raw_event_mm_vmscan_kswapd_wake+0x95>
		if (eflags & EVENT_FILE_FL_SOFT_DISABLED)
    234e:	41 f6 c7 40          	test   $0x40,%r15b
    2352:	75 33                	jne    2387 <trace_event_raw_event_mm_vmscan_kswapd_wake+0x77>
		if (eflags & EVENT_FILE_FL_PID_FILTER)
    2354:	41 f7 c7 00 02 00 00 	test   $0x200,%r15d
    235b:	75 5b                	jne    23b8 <trace_event_raw_event_mm_vmscan_kswapd_wake+0xa8>
    235d:	ba 14 00 00 00       	mov    $0x14,%edx
    2362:	4c 89 e6             	mov    %r12,%rsi
    2365:	48 8d 7d a0          	lea    -0x60(%rbp),%rdi
    2369:	e8 00 00 00 00       	call   236e <trace_event_raw_event_mm_vmscan_kswapd_wake+0x5e>
    236e:	48 85 c0             	test   %rax,%rax
    2371:	74 14                	je     2387 <trace_event_raw_event_mm_vmscan_kswapd_wake+0x77>
    2373:	44 89 70 08          	mov    %r14d,0x8(%rax)
    2377:	48 8d 7d a0          	lea    -0x60(%rbp),%rdi
    237b:	44 89 68 0c          	mov    %r13d,0xc(%rax)
    237f:	89 58 10             	mov    %ebx,0x10(%rax)
    2382:	e8 00 00 00 00       	call   2387 <trace_event_raw_event_mm_vmscan_kswapd_wake+0x77>
    2387:	48 8b 45 d0          	mov    -0x30(%rbp),%rax
    238b:	65 48 2b 04 25 28 00 	sub    %gs:0x28,%rax
    2392:	00 00 
    2394:	75 30                	jne    23c6 <trace_event_raw_event_mm_vmscan_kswapd_wake+0xb6>
    2396:	48 83 c4 38          	add    $0x38,%rsp
    239a:	5b                   	pop    %rbx
    239b:	41 5c                	pop    %r12
    239d:	41 5d                	pop    %r13
    239f:	41 5e                	pop    %r14
    23a1:	41 5f                	pop    %r15
    23a3:	5d                   	pop    %rbp
    23a4:	c3                   	ret    
			event_triggers_call(file, NULL, NULL, NULL);
    23a5:	31 c9                	xor    %ecx,%ecx
    23a7:	31 d2                	xor    %edx,%edx
    23a9:	31 f6                	xor    %esi,%esi
    23ab:	e8 00 00 00 00       	call   23b0 <trace_event_raw_event_mm_vmscan_kswapd_wake+0xa0>
		if (eflags & EVENT_FILE_FL_SOFT_DISABLED)
    23b0:	41 f6 c7 40          	test   $0x40,%r15b
    23b4:	74 9e                	je     2354 <trace_event_raw_event_mm_vmscan_kswapd_wake+0x44>
    23b6:	eb cf                	jmp    2387 <trace_event_raw_event_mm_vmscan_kswapd_wake+0x77>
			return trace_event_ignore_this_pid(file);
    23b8:	4c 89 e7             	mov    %r12,%rdi
    23bb:	e8 00 00 00 00       	call   23c0 <trace_event_raw_event_mm_vmscan_kswapd_wake+0xb0>
    23c0:	84 c0                	test   %al,%al
    23c2:	75 c3                	jne    2387 <trace_event_raw_event_mm_vmscan_kswapd_wake+0x77>
    23c4:	eb 97                	jmp    235d <trace_event_raw_event_mm_vmscan_kswapd_wake+0x4d>
    23c6:	e8 00 00 00 00       	call   23cb <trace_event_raw_event_mm_vmscan_kswapd_wake+0xbb>
    23cb:	0f 1f 44 00 00       	nopl   0x0(%rax,%rax,1)

00000000000023d0 <trace_event_raw_event_mm_vmscan_node_reclaim_begin>:
TRACE_EVENT(mm_vmscan_node_reclaim_begin,
    23d0:	55                   	push   %rbp
    23d1:	48 89 e5             	mov    %rsp,%rbp
    23d4:	41 57                	push   %r15
    23d6:	41 56                	push   %r14
    23d8:	41 89 f6             	mov    %esi,%r14d
    23db:	41 55                	push   %r13
    23dd:	41 89 d5             	mov    %edx,%r13d
    23e0:	41 54                	push   %r12
    23e2:	49 89 fc             	mov    %rdi,%r12
    23e5:	53                   	push   %rbx
    23e6:	89 cb                	mov    %ecx,%ebx
    23e8:	48 83 ec 38          	sub    $0x38,%rsp
	unsigned long eflags = file->flags;
    23ec:	4c 8b 7f 48          	mov    0x48(%rdi),%r15
    23f0:	65 48 8b 04 25 28 00 	mov    %gs:0x28,%rax
    23f7:	00 00 
    23f9:	48 89 45 d0          	mov    %rax,-0x30(%rbp)
    23fd:	31 c0                	xor    %eax,%eax
	if (!(eflags & EVENT_FILE_FL_TRIGGER_COND)) {
    23ff:	41 f7 c7 00 01 00 00 	test   $0x100,%r15d
    2406:	75 15                	jne    241d <trace_event_raw_event_mm_vmscan_node_reclaim_begin+0x4d>
		if (eflags & EVENT_FILE_FL_TRIGGER_MODE)
    2408:	41 f6 c7 80          	test   $0x80,%r15b
    240c:	75 57                	jne    2465 <trace_event_raw_event_mm_vmscan_node_reclaim_begin+0x95>
		if (eflags & EVENT_FILE_FL_SOFT_DISABLED)
    240e:	41 f6 c7 40          	test   $0x40,%r15b
    2412:	75 33                	jne    2447 <trace_event_raw_event_mm_vmscan_node_reclaim_begin+0x77>
		if (eflags & EVENT_FILE_FL_PID_FILTER)
    2414:	41 f7 c7 00 02 00 00 	test   $0x200,%r15d
    241b:	75 5b                	jne    2478 <trace_event_raw_event_mm_vmscan_node_reclaim_begin+0xa8>
    241d:	ba 14 00 00 00       	mov    $0x14,%edx
    2422:	4c 89 e6             	mov    %r12,%rsi
    2425:	48 8d 7d a0          	lea    -0x60(%rbp),%rdi
    2429:	e8 00 00 00 00       	call   242e <trace_event_raw_event_mm_vmscan_node_reclaim_begin+0x5e>
    242e:	48 85 c0             	test   %rax,%rax
    2431:	74 14                	je     2447 <trace_event_raw_event_mm_vmscan_node_reclaim_begin+0x77>
    2433:	44 89 70 08          	mov    %r14d,0x8(%rax)
    2437:	48 8d 7d a0          	lea    -0x60(%rbp),%rdi
    243b:	44 89 68 0c          	mov    %r13d,0xc(%rax)
    243f:	89 58 10             	mov    %ebx,0x10(%rax)
    2442:	e8 00 00 00 00       	call   2447 <trace_event_raw_event_mm_vmscan_node_reclaim_begin+0x77>
    2447:	48 8b 45 d0          	mov    -0x30(%rbp),%rax
    244b:	65 48 2b 04 25 28 00 	sub    %gs:0x28,%rax
    2452:	00 00 
    2454:	75 30                	jne    2486 <trace_event_raw_event_mm_vmscan_node_reclaim_begin+0xb6>
    2456:	48 83 c4 38          	add    $0x38,%rsp
    245a:	5b                   	pop    %rbx
    245b:	41 5c                	pop    %r12
    245d:	41 5d                	pop    %r13
    245f:	41 5e                	pop    %r14
    2461:	41 5f                	pop    %r15
    2463:	5d                   	pop    %rbp
    2464:	c3                   	ret    
			event_triggers_call(file, NULL, NULL, NULL);
    2465:	31 c9                	xor    %ecx,%ecx
    2467:	31 d2                	xor    %edx,%edx
    2469:	31 f6                	xor    %esi,%esi
    246b:	e8 00 00 00 00       	call   2470 <trace_event_raw_event_mm_vmscan_node_reclaim_begin+0xa0>
		if (eflags & EVENT_FILE_FL_SOFT_DISABLED)
    2470:	41 f6 c7 40          	test   $0x40,%r15b
    2474:	74 9e                	je     2414 <trace_event_raw_event_mm_vmscan_node_reclaim_begin+0x44>
    2476:	eb cf                	jmp    2447 <trace_event_raw_event_mm_vmscan_node_reclaim_begin+0x77>
			return trace_event_ignore_this_pid(file);
    2478:	4c 89 e7             	mov    %r12,%rdi
    247b:	e8 00 00 00 00       	call   2480 <trace_event_raw_event_mm_vmscan_node_reclaim_begin+0xb0>
    2480:	84 c0                	test   %al,%al
    2482:	75 c3                	jne    2447 <trace_event_raw_event_mm_vmscan_node_reclaim_begin+0x77>
    2484:	eb 97                	jmp    241d <trace_event_raw_event_mm_vmscan_node_reclaim_begin+0x4d>
    2486:	e8 00 00 00 00       	call   248b <trace_event_raw_event_mm_vmscan_node_reclaim_begin+0xbb>
    248b:	0f 1f 44 00 00       	nopl   0x0(%rax,%rax,1)

0000000000002490 <trace_event_raw_event_mm_vmscan_wakeup_kswapd>:
TRACE_EVENT(mm_vmscan_wakeup_kswapd,
    2490:	55                   	push   %rbp
    2491:	48 89 e5             	mov    %rsp,%rbp
    2494:	41 57                	push   %r15
    2496:	41 89 f7             	mov    %esi,%r15d
    2499:	41 56                	push   %r14
    249b:	41 89 d6             	mov    %edx,%r14d
    249e:	41 55                	push   %r13
    24a0:	41 89 cd             	mov    %ecx,%r13d
    24a3:	41 54                	push   %r12
    24a5:	49 89 fc             	mov    %rdi,%r12
    24a8:	53                   	push   %rbx
    24a9:	44 89 c3             	mov    %r8d,%ebx
    24ac:	48 83 ec 40          	sub    $0x40,%rsp
	unsigned long eflags = file->flags;
    24b0:	4c 8b 47 48          	mov    0x48(%rdi),%r8
    24b4:	65 48 8b 04 25 28 00 	mov    %gs:0x28,%rax
    24bb:	00 00 
    24bd:	48 89 45 d0          	mov    %rax,-0x30(%rbp)
    24c1:	31 c0                	xor    %eax,%eax
	if (!(eflags & EVENT_FILE_FL_TRIGGER_COND)) {
    24c3:	41 f7 c0 00 01 00 00 	test   $0x100,%r8d
    24ca:	75 15                	jne    24e1 <trace_event_raw_event_mm_vmscan_wakeup_kswapd+0x51>
		if (eflags & EVENT_FILE_FL_TRIGGER_MODE)
    24cc:	41 f6 c0 80          	test   $0x80,%r8b
    24d0:	75 5b                	jne    252d <trace_event_raw_event_mm_vmscan_wakeup_kswapd+0x9d>
		if (eflags & EVENT_FILE_FL_SOFT_DISABLED)
    24d2:	41 f6 c0 40          	test   $0x40,%r8b
    24d6:	75 37                	jne    250f <trace_event_raw_event_mm_vmscan_wakeup_kswapd+0x7f>
		if (eflags & EVENT_FILE_FL_PID_FILTER)
    24d8:	41 f7 c0 00 02 00 00 	test   $0x200,%r8d
    24df:	75 67                	jne    2548 <trace_event_raw_event_mm_vmscan_wakeup_kswapd+0xb8>
    24e1:	ba 18 00 00 00       	mov    $0x18,%edx
    24e6:	4c 89 e6             	mov    %r12,%rsi
    24e9:	48 8d 7d a0          	lea    -0x60(%rbp),%rdi
    24ed:	e8 00 00 00 00       	call   24f2 <trace_event_raw_event_mm_vmscan_wakeup_kswapd+0x62>
    24f2:	48 85 c0             	test   %rax,%rax
    24f5:	74 18                	je     250f <trace_event_raw_event_mm_vmscan_wakeup_kswapd+0x7f>
    24f7:	44 89 78 08          	mov    %r15d,0x8(%rax)
    24fb:	48 8d 7d a0          	lea    -0x60(%rbp),%rdi
    24ff:	44 89 70 0c          	mov    %r14d,0xc(%rax)
    2503:	44 89 68 10          	mov    %r13d,0x10(%rax)
    2507:	89 58 14             	mov    %ebx,0x14(%rax)
    250a:	e8 00 00 00 00       	call   250f <trace_event_raw_event_mm_vmscan_wakeup_kswapd+0x7f>
    250f:	48 8b 45 d0          	mov    -0x30(%rbp),%rax
    2513:	65 48 2b 04 25 28 00 	sub    %gs:0x28,%rax
    251a:	00 00 
    251c:	75 38                	jne    2556 <trace_event_raw_event_mm_vmscan_wakeup_kswapd+0xc6>
    251e:	48 83 c4 40          	add    $0x40,%rsp
    2522:	5b                   	pop    %rbx
    2523:	41 5c                	pop    %r12
    2525:	41 5d                	pop    %r13
    2527:	41 5e                	pop    %r14
    2529:	41 5f                	pop    %r15
    252b:	5d                   	pop    %rbp
    252c:	c3                   	ret    
			event_triggers_call(file, NULL, NULL, NULL);
    252d:	31 c9                	xor    %ecx,%ecx
    252f:	31 d2                	xor    %edx,%edx
    2531:	31 f6                	xor    %esi,%esi
    2533:	4c 89 45 98          	mov    %r8,-0x68(%rbp)
    2537:	e8 00 00 00 00       	call   253c <trace_event_raw_event_mm_vmscan_wakeup_kswapd+0xac>
    253c:	4c 8b 45 98          	mov    -0x68(%rbp),%r8
		if (eflags & EVENT_FILE_FL_SOFT_DISABLED)
    2540:	41 f6 c0 40          	test   $0x40,%r8b
    2544:	74 92                	je     24d8 <trace_event_raw_event_mm_vmscan_wakeup_kswapd+0x48>
    2546:	eb c7                	jmp    250f <trace_event_raw_event_mm_vmscan_wakeup_kswapd+0x7f>
			return trace_event_ignore_this_pid(file);
    2548:	4c 89 e7             	mov    %r12,%rdi
    254b:	e8 00 00 00 00       	call   2550 <trace_event_raw_event_mm_vmscan_wakeup_kswapd+0xc0>
    2550:	84 c0                	test   %al,%al
    2552:	75 bb                	jne    250f <trace_event_raw_event_mm_vmscan_wakeup_kswapd+0x7f>
    2554:	eb 8b                	jmp    24e1 <trace_event_raw_event_mm_vmscan_wakeup_kswapd+0x51>
    2556:	e8 00 00 00 00       	call   255b <trace_event_raw_event_mm_vmscan_wakeup_kswapd+0xcb>
    255b:	0f 1f 44 00 00       	nopl   0x0(%rax,%rax,1)

0000000000002560 <trace_event_raw_event_mm_vmscan_lru_isolate>:
TRACE_EVENT(mm_vmscan_lru_isolate,
    2560:	55                   	push   %rbp
    2561:	49 89 fa             	mov    %rdi,%r10
    2564:	48 89 e5             	mov    %rsp,%rbp
    2567:	41 57                	push   %r15
    2569:	41 89 f7             	mov    %esi,%r15d
    256c:	41 56                	push   %r14
    256e:	41 89 d6             	mov    %edx,%r14d
    2571:	41 55                	push   %r13
    2573:	49 89 cd             	mov    %rcx,%r13
    2576:	41 54                	push   %r12
    2578:	4d 89 c4             	mov    %r8,%r12
    257b:	53                   	push   %rbx
    257c:	4c 89 cb             	mov    %r9,%rbx
    257f:	48 83 ec 48          	sub    $0x48,%rsp
	unsigned long eflags = file->flags;
    2583:	4c 8b 47 48          	mov    0x48(%rdi),%r8
    2587:	65 48 8b 04 25 28 00 	mov    %gs:0x28,%rax
    258e:	00 00 
    2590:	48 89 45 d0          	mov    %rax,-0x30(%rbp)
    2594:	31 c0                	xor    %eax,%eax
	if (!(eflags & EVENT_FILE_FL_TRIGGER_COND)) {
    2596:	41 f7 c0 00 01 00 00 	test   $0x100,%r8d
    259d:	75 19                	jne    25b8 <trace_event_raw_event_mm_vmscan_lru_isolate+0x58>
		if (eflags & EVENT_FILE_FL_TRIGGER_MODE)
    259f:	41 f6 c0 80          	test   $0x80,%r8b
    25a3:	75 78                	jne    261d <trace_event_raw_event_mm_vmscan_lru_isolate+0xbd>
		if (eflags & EVENT_FILE_FL_SOFT_DISABLED)
    25a5:	41 f6 c0 40          	test   $0x40,%r8b
    25a9:	75 54                	jne    25ff <trace_event_raw_event_mm_vmscan_lru_isolate+0x9f>
		if (eflags & EVENT_FILE_FL_PID_FILTER)
    25ab:	41 f7 c0 00 02 00 00 	test   $0x200,%r8d
    25b2:	0f 85 8c 00 00 00    	jne    2644 <trace_event_raw_event_mm_vmscan_lru_isolate+0xe4>
    25b8:	ba 38 00 00 00       	mov    $0x38,%edx
    25bd:	4c 89 d6             	mov    %r10,%rsi
    25c0:	48 8d 7d a0          	lea    -0x60(%rbp),%rdi
    25c4:	e8 00 00 00 00       	call   25c9 <trace_event_raw_event_mm_vmscan_lru_isolate+0x69>
    25c9:	48 85 c0             	test   %rax,%rax
    25cc:	74 31                	je     25ff <trace_event_raw_event_mm_vmscan_lru_isolate+0x9f>
    25ce:	48 8b 55 10          	mov    0x10(%rbp),%rdx
    25d2:	44 89 78 08          	mov    %r15d,0x8(%rax)
    25d6:	48 8d 7d a0          	lea    -0x60(%rbp),%rdi
    25da:	44 89 70 0c          	mov    %r14d,0xc(%rax)
    25de:	48 89 50 28          	mov    %rdx,0x28(%rax)
    25e2:	8b 55 18             	mov    0x18(%rbp),%edx
    25e5:	4c 89 68 10          	mov    %r13,0x10(%rax)
    25e9:	89 50 30             	mov    %edx,0x30(%rax)
    25ec:	8b 55 20             	mov    0x20(%rbp),%edx
    25ef:	4c 89 60 18          	mov    %r12,0x18(%rax)
    25f3:	48 89 58 20          	mov    %rbx,0x20(%rax)
    25f7:	89 50 34             	mov    %edx,0x34(%rax)
    25fa:	e8 00 00 00 00       	call   25ff <trace_event_raw_event_mm_vmscan_lru_isolate+0x9f>
    25ff:	48 8b 45 d0          	mov    -0x30(%rbp),%rax
    2603:	65 48 2b 04 25 28 00 	sub    %gs:0x28,%rax
    260a:	00 00 
    260c:	75 4f                	jne    265d <trace_event_raw_event_mm_vmscan_lru_isolate+0xfd>
    260e:	48 83 c4 48          	add    $0x48,%rsp
    2612:	5b                   	pop    %rbx
    2613:	41 5c                	pop    %r12
    2615:	41 5d                	pop    %r13
    2617:	41 5e                	pop    %r14
    2619:	41 5f                	pop    %r15
    261b:	5d                   	pop    %rbp
    261c:	c3                   	ret    
			event_triggers_call(file, NULL, NULL, NULL);
    261d:	31 c9                	xor    %ecx,%ecx
    261f:	31 d2                	xor    %edx,%edx
    2621:	31 f6                	xor    %esi,%esi
    2623:	4c 89 45 90          	mov    %r8,-0x70(%rbp)
    2627:	48 89 7d 98          	mov    %rdi,-0x68(%rbp)
    262b:	e8 00 00 00 00       	call   2630 <trace_event_raw_event_mm_vmscan_lru_isolate+0xd0>
    2630:	4c 8b 45 90          	mov    -0x70(%rbp),%r8
    2634:	4c 8b 55 98          	mov    -0x68(%rbp),%r10
		if (eflags & EVENT_FILE_FL_SOFT_DISABLED)
    2638:	41 f6 c0 40          	test   $0x40,%r8b
    263c:	0f 84 69 ff ff ff    	je     25ab <trace_event_raw_event_mm_vmscan_lru_isolate+0x4b>
    2642:	eb bb                	jmp    25ff <trace_event_raw_event_mm_vmscan_lru_isolate+0x9f>
			return trace_event_ignore_this_pid(file);
    2644:	4c 89 d7             	mov    %r10,%rdi
    2647:	4c 89 55 98          	mov    %r10,-0x68(%rbp)
    264b:	e8 00 00 00 00       	call   2650 <trace_event_raw_event_mm_vmscan_lru_isolate+0xf0>
    2650:	4c 8b 55 98          	mov    -0x68(%rbp),%r10
    2654:	84 c0                	test   %al,%al
    2656:	75 a7                	jne    25ff <trace_event_raw_event_mm_vmscan_lru_isolate+0x9f>
    2658:	e9 5b ff ff ff       	jmp    25b8 <trace_event_raw_event_mm_vmscan_lru_isolate+0x58>
    265d:	e8 00 00 00 00       	call   2662 <trace_event_raw_event_mm_vmscan_lru_isolate+0x102>
    2662:	66 66 2e 0f 1f 84 00 	data16 cs nopw 0x0(%rax,%rax,1)
    2669:	00 00 00 00 
    266d:	0f 1f 00             	nopl   (%rax)

0000000000002670 <trace_event_raw_event_mm_shrink_slab_end>:
TRACE_EVENT(mm_shrink_slab_end,
    2670:	55                   	push   %rbp
    2671:	49 89 fa             	mov    %rdi,%r10
    2674:	48 89 e5             	mov    %rsp,%rbp
    2677:	41 57                	push   %r15
    2679:	41 89 d7             	mov    %edx,%r15d
    267c:	41 56                	push   %r14
    267e:	4d 89 c6             	mov    %r8,%r14
    2681:	41 55                	push   %r13
    2683:	4d 89 cd             	mov    %r9,%r13
    2686:	41 54                	push   %r12
    2688:	41 89 cc             	mov    %ecx,%r12d
    268b:	53                   	push   %rbx
    268c:	48 89 f3             	mov    %rsi,%rbx
    268f:	48 83 ec 48          	sub    $0x48,%rsp
	unsigned long eflags = file->flags;
    2693:	4c 8b 47 48          	mov    0x48(%rdi),%r8
    2697:	65 48 8b 04 25 28 00 	mov    %gs:0x28,%rax
    269e:	00 00 
    26a0:	48 89 45 d0          	mov    %rax,-0x30(%rbp)
    26a4:	31 c0                	xor    %eax,%eax
	if (!(eflags & EVENT_FILE_FL_TRIGGER_COND)) {
    26a6:	41 f7 c0 00 01 00 00 	test   $0x100,%r8d
    26ad:	75 19                	jne    26c8 <trace_event_raw_event_mm_shrink_slab_end+0x58>
		if (eflags & EVENT_FILE_FL_TRIGGER_MODE)
    26af:	41 f6 c0 80          	test   $0x80,%r8b
    26b3:	75 74                	jne    2729 <trace_event_raw_event_mm_shrink_slab_end+0xb9>
		if (eflags & EVENT_FILE_FL_SOFT_DISABLED)
    26b5:	41 f6 c0 40          	test   $0x40,%r8b
    26b9:	75 50                	jne    270b <trace_event_raw_event_mm_shrink_slab_end+0x9b>
		if (eflags & EVENT_FILE_FL_PID_FILTER)
    26bb:	41 f7 c0 00 02 00 00 	test   $0x200,%r8d
    26c2:	0f 85 88 00 00 00    	jne    2750 <trace_event_raw_event_mm_shrink_slab_end+0xe0>
    26c8:	ba 40 00 00 00       	mov    $0x40,%edx
    26cd:	4c 89 d6             	mov    %r10,%rsi
    26d0:	48 8d 7d a0          	lea    -0x60(%rbp),%rdi
    26d4:	e8 00 00 00 00       	call   26d9 <trace_event_raw_event_mm_shrink_slab_end+0x69>
    26d9:	48 85 c0             	test   %rax,%rax
    26dc:	74 2d                	je     270b <trace_event_raw_event_mm_shrink_slab_end+0x9b>
    26de:	48 89 58 08          	mov    %rbx,0x8(%rax)
    26e2:	48 8d 7d a0          	lea    -0x60(%rbp),%rdi
    26e6:	44 89 78 10          	mov    %r15d,0x10(%rax)
    26ea:	48 8b 53 08          	mov    0x8(%rbx),%rdx
    26ee:	4c 89 70 20          	mov    %r14,0x20(%rax)
    26f2:	48 89 50 18          	mov    %rdx,0x18(%rax)
    26f6:	48 8b 55 10          	mov    0x10(%rbp),%rdx
    26fa:	4c 89 68 28          	mov    %r13,0x28(%rax)
    26fe:	44 89 60 30          	mov    %r12d,0x30(%rax)
    2702:	48 89 50 38          	mov    %rdx,0x38(%rax)
    2706:	e8 00 00 00 00       	call   270b <trace_event_raw_event_mm_shrink_slab_end+0x9b>
    270b:	48 8b 45 d0          	mov    -0x30(%rbp),%rax
    270f:	65 48 2b 04 25 28 00 	sub    %gs:0x28,%rax
    2716:	00 00 
    2718:	75 4f                	jne    2769 <trace_event_raw_event_mm_shrink_slab_end+0xf9>
    271a:	48 83 c4 48          	add    $0x48,%rsp
    271e:	5b                   	pop    %rbx
    271f:	41 5c                	pop    %r12
    2721:	41 5d                	pop    %r13
    2723:	41 5e                	pop    %r14
    2725:	41 5f                	pop    %r15
    2727:	5d                   	pop    %rbp
    2728:	c3                   	ret    
			event_triggers_call(file, NULL, NULL, NULL);
    2729:	31 c9                	xor    %ecx,%ecx
    272b:	31 d2                	xor    %edx,%edx
    272d:	31 f6                	xor    %esi,%esi
    272f:	4c 89 45 90          	mov    %r8,-0x70(%rbp)
    2733:	48 89 7d 98          	mov    %rdi,-0x68(%rbp)
    2737:	e8 00 00 00 00       	call   273c <trace_event_raw_event_mm_shrink_slab_end+0xcc>
    273c:	4c 8b 45 90          	mov    -0x70(%rbp),%r8
    2740:	4c 8b 55 98          	mov    -0x68(%rbp),%r10
		if (eflags & EVENT_FILE_FL_SOFT_DISABLED)
    2744:	41 f6 c0 40          	test   $0x40,%r8b
    2748:	0f 84 6d ff ff ff    	je     26bb <trace_event_raw_event_mm_shrink_slab_end+0x4b>
    274e:	eb bb                	jmp    270b <trace_event_raw_event_mm_shrink_slab_end+0x9b>
			return trace_event_ignore_this_pid(file);
    2750:	4c 89 d7             	mov    %r10,%rdi
    2753:	4c 89 55 98          	mov    %r10,-0x68(%rbp)
    2757:	e8 00 00 00 00       	call   275c <trace_event_raw_event_mm_shrink_slab_end+0xec>
    275c:	4c 8b 55 98          	mov    -0x68(%rbp),%r10
    2760:	84 c0                	test   %al,%al
    2762:	75 a7                	jne    270b <trace_event_raw_event_mm_shrink_slab_end+0x9b>
    2764:	e9 5f ff ff ff       	jmp    26c8 <trace_event_raw_event_mm_shrink_slab_end+0x58>
    2769:	e8 00 00 00 00       	call   276e <trace_event_raw_event_mm_shrink_slab_end+0xfe>
    276e:	66 90                	xchg   %ax,%ax

0000000000002770 <trace_event_raw_event_mm_vmscan_lru_shrink_active>:
TRACE_EVENT(mm_vmscan_lru_shrink_active,
    2770:	55                   	push   %rbp
    2771:	49 89 fa             	mov    %rdi,%r10
    2774:	48 89 e5             	mov    %rsp,%rbp
    2777:	41 57                	push   %r15
    2779:	41 89 f7             	mov    %esi,%r15d
    277c:	41 56                	push   %r14
    277e:	49 89 d6             	mov    %rdx,%r14
    2781:	41 55                	push   %r13
    2783:	49 89 cd             	mov    %rcx,%r13
    2786:	41 54                	push   %r12
    2788:	4d 89 c4             	mov    %r8,%r12
    278b:	53                   	push   %rbx
    278c:	4c 89 cb             	mov    %r9,%rbx
    278f:	48 83 ec 48          	sub    $0x48,%rsp
	unsigned long eflags = file->flags;
    2793:	4c 8b 47 48          	mov    0x48(%rdi),%r8
    2797:	65 48 8b 04 25 28 00 	mov    %gs:0x28,%rax
    279e:	00 00 
    27a0:	48 89 45 d0          	mov    %rax,-0x30(%rbp)
    27a4:	31 c0                	xor    %eax,%eax
	if (!(eflags & EVENT_FILE_FL_TRIGGER_COND)) {
    27a6:	41 f7 c0 00 01 00 00 	test   $0x100,%r8d
    27ad:	75 19                	jne    27c8 <trace_event_raw_event_mm_vmscan_lru_shrink_active+0x58>
		if (eflags & EVENT_FILE_FL_TRIGGER_MODE)
    27af:	41 f6 c0 80          	test   $0x80,%r8b
    27b3:	75 79                	jne    282e <trace_event_raw_event_mm_vmscan_lru_shrink_active+0xbe>
		if (eflags & EVENT_FILE_FL_SOFT_DISABLED)
    27b5:	41 f6 c0 40          	test   $0x40,%r8b
    27b9:	75 55                	jne    2810 <trace_event_raw_event_mm_vmscan_lru_shrink_active+0xa0>
		if (eflags & EVENT_FILE_FL_PID_FILTER)
    27bb:	41 f7 c0 00 02 00 00 	test   $0x200,%r8d
    27c2:	0f 85 86 00 00 00    	jne    284e <trace_event_raw_event_mm_vmscan_lru_shrink_active+0xde>
    27c8:	ba 38 00 00 00       	mov    $0x38,%edx
    27cd:	4c 89 d6             	mov    %r10,%rsi
    27d0:	48 8d 7d a0          	lea    -0x60(%rbp),%rdi
    27d4:	e8 00 00 00 00       	call   27d9 <trace_event_raw_event_mm_vmscan_lru_shrink_active+0x69>
    27d9:	48 85 c0             	test   %rax,%rax
    27dc:	74 32                	je     2810 <trace_event_raw_event_mm_vmscan_lru_shrink_active+0xa0>
    27de:	8b 55 10             	mov    0x10(%rbp),%edx
    27e1:	83 7d 18 01          	cmpl   $0x1,0x18(%rbp)
    27e5:	44 89 78 08          	mov    %r15d,0x8(%rax)
    27e9:	48 8d 7d a0          	lea    -0x60(%rbp),%rdi
    27ed:	4c 89 70 10          	mov    %r14,0x10(%rax)
    27f1:	89 50 30             	mov    %edx,0x30(%rax)
    27f4:	ba 09 00 00 00       	mov    $0x9,%edx
    27f9:	83 da ff             	sbb    $0xffffffff,%edx
    27fc:	4c 89 68 18          	mov    %r13,0x18(%rax)
    2800:	4c 89 60 20          	mov    %r12,0x20(%rax)
    2804:	48 89 58 28          	mov    %rbx,0x28(%rax)
    2808:	89 50 34             	mov    %edx,0x34(%rax)
    280b:	e8 00 00 00 00       	call   2810 <trace_event_raw_event_mm_vmscan_lru_shrink_active+0xa0>
    2810:	48 8b 45 d0          	mov    -0x30(%rbp),%rax
    2814:	65 48 2b 04 25 28 00 	sub    %gs:0x28,%rax
    281b:	00 00 
    281d:	75 48                	jne    2867 <trace_event_raw_event_mm_vmscan_lru_shrink_active+0xf7>
    281f:	48 83 c4 48          	add    $0x48,%rsp
    2823:	5b                   	pop    %rbx
    2824:	41 5c                	pop    %r12
    2826:	41 5d                	pop    %r13
    2828:	41 5e                	pop    %r14
    282a:	41 5f                	pop    %r15
    282c:	5d                   	pop    %rbp
    282d:	c3                   	ret    
			event_triggers_call(file, NULL, NULL, NULL);
    282e:	31 c9                	xor    %ecx,%ecx
    2830:	31 d2                	xor    %edx,%edx
    2832:	31 f6                	xor    %esi,%esi
    2834:	4c 89 45 90          	mov    %r8,-0x70(%rbp)
    2838:	48 89 7d 98          	mov    %rdi,-0x68(%rbp)
    283c:	e8 00 00 00 00       	call   2841 <trace_event_raw_event_mm_vmscan_lru_shrink_active+0xd1>
    2841:	4c 8b 45 90          	mov    -0x70(%rbp),%r8
    2845:	4c 8b 55 98          	mov    -0x68(%rbp),%r10
    2849:	e9 67 ff ff ff       	jmp    27b5 <trace_event_raw_event_mm_vmscan_lru_shrink_active+0x45>
			return trace_event_ignore_this_pid(file);
    284e:	4c 89 d7             	mov    %r10,%rdi
    2851:	4c 89 55 98          	mov    %r10,-0x68(%rbp)
    2855:	e8 00 00 00 00       	call   285a <trace_event_raw_event_mm_vmscan_lru_shrink_active+0xea>
    285a:	4c 8b 55 98          	mov    -0x68(%rbp),%r10
    285e:	84 c0                	test   %al,%al
    2860:	75 ae                	jne    2810 <trace_event_raw_event_mm_vmscan_lru_shrink_active+0xa0>
    2862:	e9 61 ff ff ff       	jmp    27c8 <trace_event_raw_event_mm_vmscan_lru_shrink_active+0x58>
    2867:	e8 00 00 00 00       	call   286c <trace_event_raw_event_mm_vmscan_lru_shrink_active+0xfc>
    286c:	0f 1f 40 00          	nopl   0x0(%rax)

0000000000002870 <trace_event_raw_event_mm_shrink_slab_start>:
TRACE_EVENT(mm_shrink_slab_start,
    2870:	55                   	push   %rbp
    2871:	49 89 fa             	mov    %rdi,%r10
    2874:	48 89 e5             	mov    %rsp,%rbp
    2877:	41 57                	push   %r15
    2879:	49 89 d7             	mov    %rdx,%r15
    287c:	41 56                	push   %r14
    287e:	49 89 ce             	mov    %rcx,%r14
    2881:	41 55                	push   %r13
    2883:	4d 89 c5             	mov    %r8,%r13
    2886:	41 54                	push   %r12
    2888:	4d 89 cc             	mov    %r9,%r12
    288b:	53                   	push   %rbx
    288c:	48 89 f3             	mov    %rsi,%rbx
    288f:	48 83 ec 48          	sub    $0x48,%rsp
	unsigned long eflags = file->flags;
    2893:	4c 8b 47 48          	mov    0x48(%rdi),%r8
    2897:	65 48 8b 04 25 28 00 	mov    %gs:0x28,%rax
    289e:	00 00 
    28a0:	48 89 45 d0          	mov    %rax,-0x30(%rbp)
    28a4:	31 c0                	xor    %eax,%eax
	if (!(eflags & EVENT_FILE_FL_TRIGGER_COND)) {
    28a6:	41 f7 c0 00 01 00 00 	test   $0x100,%r8d
    28ad:	75 1d                	jne    28cc <trace_event_raw_event_mm_shrink_slab_start+0x5c>
		if (eflags & EVENT_FILE_FL_TRIGGER_MODE)
    28af:	41 f6 c0 80          	test   $0x80,%r8b
    28b3:	0f 85 83 00 00 00    	jne    293c <trace_event_raw_event_mm_shrink_slab_start+0xcc>
		if (eflags & EVENT_FILE_FL_SOFT_DISABLED)
    28b9:	41 f6 c0 40          	test   $0x40,%r8b
    28bd:	75 5f                	jne    291e <trace_event_raw_event_mm_shrink_slab_start+0xae>
		if (eflags & EVENT_FILE_FL_PID_FILTER)
    28bf:	41 f7 c0 00 02 00 00 	test   $0x200,%r8d
    28c6:	0f 85 97 00 00 00    	jne    2963 <trace_event_raw_event_mm_shrink_slab_start+0xf3>
    28cc:	ba 50 00 00 00       	mov    $0x50,%edx
    28d1:	4c 89 d6             	mov    %r10,%rsi
    28d4:	48 8d 7d a0          	lea    -0x60(%rbp),%rdi
    28d8:	e8 00 00 00 00       	call   28dd <trace_event_raw_event_mm_shrink_slab_start+0x6d>
    28dd:	48 85 c0             	test   %rax,%rax
    28e0:	74 3c                	je     291e <trace_event_raw_event_mm_shrink_slab_start+0xae>
    28e2:	48 89 58 08          	mov    %rbx,0x8(%rax)
    28e6:	48 8b 53 08          	mov    0x8(%rbx),%rdx
    28ea:	48 8d 7d a0          	lea    -0x60(%rbp),%rdi
    28ee:	48 89 50 10          	mov    %rdx,0x10(%rax)
    28f2:	41 8b 57 04          	mov    0x4(%r15),%edx
    28f6:	4c 89 70 20          	mov    %r14,0x20(%rax)
    28fa:	89 50 18             	mov    %edx,0x18(%rax)
    28fd:	41 8b 17             	mov    (%r15),%edx
    2900:	4c 89 68 30          	mov    %r13,0x30(%rax)
    2904:	89 50 28             	mov    %edx,0x28(%rax)
    2907:	48 8b 55 10          	mov    0x10(%rbp),%rdx
    290b:	4c 89 60 38          	mov    %r12,0x38(%rax)
    290f:	48 89 50 40          	mov    %rdx,0x40(%rax)
    2913:	8b 55 18             	mov    0x18(%rbp),%edx
    2916:	89 50 48             	mov    %edx,0x48(%rax)
    2919:	e8 00 00 00 00       	call   291e <trace_event_raw_event_mm_shrink_slab_start+0xae>
    291e:	48 8b 45 d0          	mov    -0x30(%rbp),%rax
    2922:	65 48 2b 04 25 28 00 	sub    %gs:0x28,%rax
    2929:	00 00 
    292b:	75 4f                	jne    297c <trace_event_raw_event_mm_shrink_slab_start+0x10c>
    292d:	48 83 c4 48          	add    $0x48,%rsp
    2931:	5b                   	pop    %rbx
    2932:	41 5c                	pop    %r12
    2934:	41 5d                	pop    %r13
    2936:	41 5e                	pop    %r14
    2938:	41 5f                	pop    %r15
    293a:	5d                   	pop    %rbp
    293b:	c3                   	ret    
			event_triggers_call(file, NULL, NULL, NULL);
    293c:	31 c9                	xor    %ecx,%ecx
    293e:	31 d2                	xor    %edx,%edx
    2940:	31 f6                	xor    %esi,%esi
    2942:	4c 89 45 90          	mov    %r8,-0x70(%rbp)
    2946:	48 89 7d 98          	mov    %rdi,-0x68(%rbp)
    294a:	e8 00 00 00 00       	call   294f <trace_event_raw_event_mm_shrink_slab_start+0xdf>
    294f:	4c 8b 45 90          	mov    -0x70(%rbp),%r8
    2953:	4c 8b 55 98          	mov    -0x68(%rbp),%r10
		if (eflags & EVENT_FILE_FL_SOFT_DISABLED)
    2957:	41 f6 c0 40          	test   $0x40,%r8b
    295b:	0f 84 5e ff ff ff    	je     28bf <trace_event_raw_event_mm_shrink_slab_start+0x4f>
    2961:	eb bb                	jmp    291e <trace_event_raw_event_mm_shrink_slab_start+0xae>
			return trace_event_ignore_this_pid(file);
    2963:	4c 89 d7             	mov    %r10,%rdi
    2966:	4c 89 55 98          	mov    %r10,-0x68(%rbp)
    296a:	e8 00 00 00 00       	call   296f <trace_event_raw_event_mm_shrink_slab_start+0xff>
    296f:	4c 8b 55 98          	mov    -0x68(%rbp),%r10
    2973:	84 c0                	test   %al,%al
    2975:	75 a7                	jne    291e <trace_event_raw_event_mm_shrink_slab_start+0xae>
    2977:	e9 50 ff ff ff       	jmp    28cc <trace_event_raw_event_mm_shrink_slab_start+0x5c>
    297c:	e8 00 00 00 00       	call   2981 <trace_event_raw_event_mm_shrink_slab_start+0x111>
    2981:	66 66 2e 0f 1f 84 00 	data16 cs nopw 0x0(%rax,%rax,1)
    2988:	00 00 00 00 
    298c:	0f 1f 40 00          	nopl   0x0(%rax)

0000000000002990 <trace_event_raw_event_mm_vmscan_writepage>:
TRACE_EVENT(mm_vmscan_writepage,
    2990:	55                   	push   %rbp
    2991:	48 89 e5             	mov    %rsp,%rbp
    2994:	41 55                	push   %r13
    2996:	41 54                	push   %r12
    2998:	49 89 fc             	mov    %rdi,%r12
    299b:	53                   	push   %rbx
    299c:	48 89 f3             	mov    %rsi,%rbx
    299f:	48 83 ec 38          	sub    $0x38,%rsp
	unsigned long eflags = file->flags;
    29a3:	4c 8b 6f 48          	mov    0x48(%rdi),%r13
    29a7:	65 48 8b 04 25 28 00 	mov    %gs:0x28,%rax
    29ae:	00 00 
    29b0:	48 89 45 e0          	mov    %rax,-0x20(%rbp)
    29b4:	31 c0                	xor    %eax,%eax
	if (!(eflags & EVENT_FILE_FL_TRIGGER_COND)) {
    29b6:	41 f7 c5 00 01 00 00 	test   $0x100,%r13d
    29bd:	75 1d                	jne    29dc <trace_event_raw_event_mm_vmscan_writepage+0x4c>
		if (eflags & EVENT_FILE_FL_TRIGGER_MODE)
    29bf:	41 f6 c5 80          	test   $0x80,%r13b
    29c3:	0f 85 85 00 00 00    	jne    2a4e <trace_event_raw_event_mm_vmscan_writepage+0xbe>
		if (eflags & EVENT_FILE_FL_SOFT_DISABLED)
    29c9:	41 f6 c5 40          	test   $0x40,%r13b
    29cd:	75 65                	jne    2a34 <trace_event_raw_event_mm_vmscan_writepage+0xa4>
		if (eflags & EVENT_FILE_FL_PID_FILTER)
    29cf:	41 f7 c5 00 02 00 00 	test   $0x200,%r13d
    29d6:	0f 85 82 00 00 00    	jne    2a5e <trace_event_raw_event_mm_vmscan_writepage+0xce>
    29dc:	ba 18 00 00 00       	mov    $0x18,%edx
    29e1:	4c 89 e6             	mov    %r12,%rsi
    29e4:	48 8d 7d b0          	lea    -0x50(%rbp),%rdi
    29e8:	e8 00 00 00 00       	call   29ed <trace_event_raw_event_mm_vmscan_writepage+0x5d>
    29ed:	48 85 c0             	test   %rax,%rax
    29f0:	74 42                	je     2a34 <trace_event_raw_event_mm_vmscan_writepage+0xa4>
    29f2:	48 89 da             	mov    %rbx,%rdx
    29f5:	48 2b 15 00 00 00 00 	sub    0x0(%rip),%rdx        # 29fc <trace_event_raw_event_mm_vmscan_writepage+0x6c>
    29fc:	48 8d 7d b0          	lea    -0x50(%rbp),%rdi
    2a00:	48 c1 fa 06          	sar    $0x6,%rdx
    2a04:	48 89 50 08          	mov    %rdx,0x8(%rax)
	unsigned long head = READ_ONCE(page->compound_head);
    2a08:	48 8b 53 08          	mov    0x8(%rbx),%rdx
		return head - 1;
    2a0c:	48 8d 4a ff          	lea    -0x1(%rdx),%rcx
    2a10:	83 e2 01             	and    $0x1,%edx
    2a13:	48 0f 45 d9          	cmovne %rcx,%rbx
		(addr[nr >> _BITOPS_LONG_SHIFT])) != 0;
    2a17:	48 8b 13             	mov    (%rbx),%rdx
    2a1a:	48 c1 ea 13          	shr    $0x13,%rdx
    2a1e:	83 e2 01             	and    $0x1,%edx
    2a21:	80 fa 01             	cmp    $0x1,%dl
    2a24:	ba 09 00 00 00       	mov    $0x9,%edx
    2a29:	83 d2 00             	adc    $0x0,%edx
    2a2c:	89 50 10             	mov    %edx,0x10(%rax)
    2a2f:	e8 00 00 00 00       	call   2a34 <trace_event_raw_event_mm_vmscan_writepage+0xa4>
    2a34:	48 8b 45 e0          	mov    -0x20(%rbp),%rax
    2a38:	65 48 2b 04 25 28 00 	sub    %gs:0x28,%rax
    2a3f:	00 00 
    2a41:	75 2c                	jne    2a6f <trace_event_raw_event_mm_vmscan_writepage+0xdf>
    2a43:	48 83 c4 38          	add    $0x38,%rsp
    2a47:	5b                   	pop    %rbx
    2a48:	41 5c                	pop    %r12
    2a4a:	41 5d                	pop    %r13
    2a4c:	5d                   	pop    %rbp
    2a4d:	c3                   	ret    
			event_triggers_call(file, NULL, NULL, NULL);
    2a4e:	31 c9                	xor    %ecx,%ecx
    2a50:	31 d2                	xor    %edx,%edx
    2a52:	31 f6                	xor    %esi,%esi
    2a54:	e8 00 00 00 00       	call   2a59 <trace_event_raw_event_mm_vmscan_writepage+0xc9>
    2a59:	e9 6b ff ff ff       	jmp    29c9 <trace_event_raw_event_mm_vmscan_writepage+0x39>
			return trace_event_ignore_this_pid(file);
    2a5e:	4c 89 e7             	mov    %r12,%rdi
    2a61:	e8 00 00 00 00       	call   2a66 <trace_event_raw_event_mm_vmscan_writepage+0xd6>
    2a66:	84 c0                	test   %al,%al
    2a68:	75 ca                	jne    2a34 <trace_event_raw_event_mm_vmscan_writepage+0xa4>
    2a6a:	e9 6d ff ff ff       	jmp    29dc <trace_event_raw_event_mm_vmscan_writepage+0x4c>
    2a6f:	e8 00 00 00 00       	call   2a74 <trace_event_raw_event_mm_vmscan_writepage+0xe4>
    2a74:	66 66 2e 0f 1f 84 00 	data16 cs nopw 0x0(%rax,%rax,1)
    2a7b:	00 00 00 00 
    2a7f:	90                   	nop

0000000000002a80 <mod_memcg_state.constprop.0>:
static inline void mod_memcg_state(struct mem_cgroup *memcg,
    2a80:	55                   	push   %rbp
    2a81:	48 89 e5             	mov    %rsp,%rbp
    2a84:	53                   	push   %rbx
	((struct paravirt_callee_save) { func })

#ifdef CONFIG_PARAVIRT_XXL
static inline notrace unsigned long arch_local_save_flags(void)
{
	return PVOP_ALT_CALLEE0(unsigned long, irq.save_fl, "pushf; pop %%rax;",
    2a85:	ff 14 25 00 00 00 00 	call   *0x0
    2a8c:	48 89 c3             	mov    %rax,%rbx
				ALT_NOT(X86_FEATURE_XENPV));
}

static inline notrace void arch_local_irq_disable(void)
{
	PVOP_ALT_VCALLEE0(irq.irq_disable, "cli;", ALT_NOT(X86_FEATURE_XENPV));
    2a8f:	ff 14 25 00 00 00 00 	call   *0x0
	__mod_memcg_state(memcg, idx, val);
    2a96:	ba 01 00 00 00       	mov    $0x1,%edx
    2a9b:	e8 00 00 00 00       	call   2aa0 <mod_memcg_state.constprop.0+0x20>
	return arch_irqs_disabled_flags(flags);
}

static __always_inline void arch_local_irq_restore(unsigned long flags)
{
	if (!arch_irqs_disabled_flags(flags))
    2aa0:	80 e7 02             	and    $0x2,%bh
    2aa3:	75 06                	jne    2aab <mod_memcg_state.constprop.0+0x2b>
}
    2aa5:	48 8b 5d f8          	mov    -0x8(%rbp),%rbx
    2aa9:	c9                   	leave  
    2aaa:	c3                   	ret    
}

static inline notrace void arch_local_irq_enable(void)
{
	PVOP_ALT_VCALLEE0(irq.irq_enable, "sti;", ALT_NOT(X86_FEATURE_XENPV));
    2aab:	ff 14 25 00 00 00 00 	call   *0x0
    2ab2:	48 8b 5d f8          	mov    -0x8(%rbp),%rbx
    2ab6:	c9                   	leave  
    2ab7:	c3                   	ret    
    2ab8:	0f 1f 84 00 00 00 00 	nopl   0x0(%rax,%rax,1)
    2abf:	00 

0000000000002ac0 <move_pages_to_lru>:
{
    2ac0:	e8 00 00 00 00       	call   2ac5 <move_pages_to_lru+0x5>
    2ac5:	55                   	push   %rbp
    2ac6:	48 89 e5             	mov    %rsp,%rbp
    2ac9:	41 57                	push   %r15
    2acb:	41 56                	push   %r14
    2acd:	41 55                	push   %r13
    2acf:	41 54                	push   %r12
    2ad1:	53                   	push   %rbx
    2ad2:	48 83 ec 50          	sub    $0x50,%rsp
    2ad6:	48 89 75 88          	mov    %rsi,-0x78(%rbp)
    2ada:	65 48 8b 04 25 28 00 	mov    %gs:0x28,%rax
    2ae1:	00 00 
    2ae3:	48 89 45 d0          	mov    %rax,-0x30(%rbp)
    2ae7:	31 c0                	xor    %eax,%eax
	LIST_HEAD(pages_to_free);
    2ae9:	48 8d 45 c0          	lea    -0x40(%rbp),%rax
    2aed:	48 89 45 c0          	mov    %rax,-0x40(%rbp)
    2af1:	48 89 45 c8          	mov    %rax,-0x38(%rbp)
    2af5:	48 8b 06             	mov    (%rsi),%rax
	while (!list_empty(list)) {
    2af8:	48 39 c6             	cmp    %rax,%rsi
    2afb:	0f 84 f3 03 00 00    	je     2ef4 <move_pages_to_lru+0x434>
	int nr_pages, nr_moved = 0;
    2b01:	c7 45 a0 00 00 00 00 	movl   $0x0,-0x60(%rbp)
    2b08:	49 89 fd             	mov    %rdi,%r13
    2b0b:	49 89 f7             	mov    %rsi,%r15
		page = lru_to_page(list);
    2b0e:	49 8b 5f 08          	mov    0x8(%r15),%rbx
	__list_del(entry->prev, entry->next);
    2b12:	48 8b 43 08          	mov    0x8(%rbx),%rax
    2b16:	48 8b 13             	mov    (%rbx),%rdx
    2b19:	4c 8d 73 f8          	lea    -0x8(%rbx),%r14
	next->prev = prev;
    2b1d:	48 89 42 08          	mov    %rax,0x8(%rdx)
	WRITE_ONCE(prev->next, next);
    2b21:	48 89 10             	mov    %rdx,(%rax)
	entry->next = LIST_POISON1;
    2b24:	48 b8 00 01 00 00 00 	movabs $0xdead000000000100,%rax
    2b2b:	00 ad de 
    2b2e:	48 89 03             	mov    %rax,(%rbx)
	entry->prev = LIST_POISON2;
    2b31:	48 83 c0 22          	add    $0x22,%rax
    2b35:	48 89 43 08          	mov    %rax,0x8(%rbx)
{
	bool ret;

	/* Prevent address_space of inode and swap cache from being freed */
	rcu_read_lock();
	ret = !mapping_unevictable(page_mapping(page)) && !PageMlocked(page);
    2b39:	4c 89 f7             	mov    %r14,%rdi
    2b3c:	e8 00 00 00 00       	call   2b41 <move_pages_to_lru+0x81>
	clear_bit(AS_UNEVICTABLE, &mapping->flags);
}

static inline bool mapping_unevictable(struct address_space *mapping)
{
	return mapping && test_bit(AS_UNEVICTABLE, &mapping->flags);
    2b41:	48 85 c0             	test   %rax,%rax
    2b44:	0f 84 b1 00 00 00    	je     2bfb <move_pages_to_lru+0x13b>
    2b4a:	48 8b 80 98 00 00 00 	mov    0x98(%rax),%rax
    2b51:	a8 08                	test   $0x8,%al
    2b53:	0f 84 a2 00 00 00    	je     2bfb <move_pages_to_lru+0x13b>
}

static inline void __rcu_read_unlock(void)
{
	preempt_enable();
	rcu_read_unlock_strict();
    2b59:	e8 00 00 00 00       	call   2b5e <move_pages_to_lru+0x9e>
}

static inline void do_raw_spin_unlock(raw_spinlock_t *lock) __releases(lock)
{
	mmiowb_spin_unlock();
	arch_spin_unlock(&lock->raw_lock);
    2b5e:	4d 8d 65 50          	lea    0x50(%r13),%r12
	PVOP_ALT_VCALLEE1(lock.queued_spin_unlock, lock,
    2b62:	4c 89 e7             	mov    %r12,%rdi
    2b65:	ff 14 25 00 00 00 00 	call   *0x0
	PVOP_ALT_VCALLEE0(irq.irq_enable, "sti;", ALT_NOT(X86_FEATURE_XENPV));
    2b6c:	ff 14 25 00 00 00 00 	call   *0x0
	lru_cache_add(page);
    2b73:	4c 89 f7             	mov    %r14,%rdi
    2b76:	e8 00 00 00 00       	call   2b7b <move_pages_to_lru+0xbb>
	unsigned long head = READ_ONCE(page->compound_head);
    2b7b:	48 8b 03             	mov    (%rbx),%rax
		return head - 1;
    2b7e:	48 8d 50 ff          	lea    -0x1(%rax),%rdx
    2b82:	a8 01                	test   $0x1,%al
    2b84:	4c 0f 45 f2          	cmovne %rdx,%r14
    2b88:	0f 1f 44 00 00       	nopl   0x0(%rax,%rax,1)
 * returns true if the result is 0, or false for all other
 * cases.
 */
static __always_inline bool arch_atomic_dec_and_test(atomic_t *v)
{
	return GEN_UNARY_RMWcc(LOCK_PREFIX "decl", v->counter, e);
    2b8d:	f0 41 ff 4e 34       	lock decl 0x34(%r14)
	if (page_is_devmap_managed(page)) {
		put_devmap_managed_page(page);
		return;
	}

	if (put_page_testzero(page))
    2b92:	0f 84 4f 03 00 00    	je     2ee7 <move_pages_to_lru+0x427>
	raw_spin_lock_nest_lock(spinlock_check(lock), nest_lock);	\
} while (0)

static __always_inline void spin_lock_irq(spinlock_t *lock)
{
	raw_spin_lock_irq(&lock->rlock);
    2b98:	4c 89 e7             	mov    %r12,%rdi
    2b9b:	e8 00 00 00 00       	call   2ba0 <move_pages_to_lru+0xe0>
	return READ_ONCE(head->next) == head;
    2ba0:	49 8b 07             	mov    (%r15),%rax
	while (!list_empty(list)) {
    2ba3:	49 39 c7             	cmp    %rax,%r15
    2ba6:	0f 85 62 ff ff ff    	jne    2b0e <move_pages_to_lru+0x4e>
    2bac:	48 8b 55 c0          	mov    -0x40(%rbp),%rdx
	if (!list_empty(list))
    2bb0:	48 8d 4d c0          	lea    -0x40(%rbp),%rcx
	return nr_moved;
    2bb4:	8b 45 a0             	mov    -0x60(%rbp),%eax
    2bb7:	48 39 ca             	cmp    %rcx,%rdx
    2bba:	74 1d                	je     2bd9 <move_pages_to_lru+0x119>
		__list_splice(list, head, head->next);
    2bbc:	48 8b 7d 88          	mov    -0x78(%rbp),%rdi
	struct list_head *first = list->next;
    2bc0:	48 8b 75 c0          	mov    -0x40(%rbp),%rsi
	struct list_head *last = list->prev;
    2bc4:	48 8b 4d c8          	mov    -0x38(%rbp),%rcx
		__list_splice(list, head, head->next);
    2bc8:	48 8b 17             	mov    (%rdi),%rdx
	first->prev = prev;
    2bcb:	48 89 7e 08          	mov    %rdi,0x8(%rsi)
	prev->next = first;
    2bcf:	48 89 37             	mov    %rsi,(%rdi)
	last->next = next;
    2bd2:	48 89 11             	mov    %rdx,(%rcx)
	next->prev = last;
    2bd5:	48 89 4a 08          	mov    %rcx,0x8(%rdx)
}
    2bd9:	48 8b 55 d0          	mov    -0x30(%rbp),%rdx
    2bdd:	65 48 2b 14 25 28 00 	sub    %gs:0x28,%rdx
    2be4:	00 00 
    2be6:	0f 85 13 03 00 00    	jne    2eff <move_pages_to_lru+0x43f>
    2bec:	48 83 c4 50          	add    $0x50,%rsp
    2bf0:	5b                   	pop    %rbx
    2bf1:	41 5c                	pop    %r12
    2bf3:	41 5d                	pop    %r13
    2bf5:	41 5e                	pop    %r14
    2bf7:	41 5f                	pop    %r15
    2bf9:	5d                   	pop    %rbp
    2bfa:	c3                   	ret    
	unsigned long head = READ_ONCE(page->compound_head);
    2bfb:	48 8b 13             	mov    (%rbx),%rdx
	if (unlikely(head & 1))
    2bfe:	48 8d 42 ff          	lea    -0x1(%rdx),%rax
    2c02:	83 e2 01             	and    $0x1,%edx
    2c05:	49 0f 44 c6          	cmove  %r14,%rax
    2c09:	4c 8b 20             	mov    (%rax),%r12
    2c0c:	e8 00 00 00 00       	call   2c11 <move_pages_to_lru+0x151>
		if (unlikely(!page_evictable(page))) {
    2c11:	41 f7 c4 00 00 20 00 	test   $0x200000,%r12d
    2c18:	0f 85 40 ff ff ff    	jne    2b5e <move_pages_to_lru+0x9e>
	unsigned long head = READ_ONCE(page->compound_head);
    2c1e:	48 8b 13             	mov    (%rbx),%rdx
		return head - 1;
    2c21:	48 8d 42 ff          	lea    -0x1(%rdx),%rax
    2c25:	83 e2 01             	and    $0x1,%edx
    2c28:	49 0f 44 c6          	cmove  %r14,%rax
		asm volatile(LOCK_PREFIX "orb %b1,%0"
    2c2c:	f0 80 08 10          	lock orb $0x10,(%rax)
    2c30:	f0 ff 4b 2c          	lock decl 0x2c(%rbx)
	unsigned long head = READ_ONCE(page->compound_head);
    2c34:	48 8b 13             	mov    (%rbx),%rdx
		return head - 1;
    2c37:	48 8d 42 ff          	lea    -0x1(%rdx),%rax
		if (unlikely(put_page_testzero(page))) {
    2c3b:	0f 84 ab 01 00 00    	je     2dec <move_pages_to_lru+0x32c>
    2c41:	83 e2 01             	and    $0x1,%edx
    2c44:	49 0f 44 c6          	cmove  %r14,%rax
		(addr[nr >> _BITOPS_LONG_SHIFT])) != 0;
    2c48:	48 8b 00             	mov    (%rax),%rax
{
	enum lru_list lru;

	VM_BUG_ON_PAGE(PageActive(page) && PageUnevictable(page), page);

	if (PageUnevictable(page))
    2c4b:	a9 00 00 10 00       	test   $0x100000,%eax
    2c50:	0f 85 52 01 00 00    	jne    2da8 <move_pages_to_lru+0x2e8>
	unsigned long head = READ_ONCE(page->compound_head);
    2c56:	48 8b 13             	mov    (%rbx),%rdx
		return head - 1;
    2c59:	48 8d 42 ff          	lea    -0x1(%rdx),%rax
    2c5d:	83 e2 01             	and    $0x1,%edx
    2c60:	49 0f 44 c6          	cmove  %r14,%rax
    2c64:	4c 8b 00             	mov    (%rax),%r8
	unsigned long head = READ_ONCE(page->compound_head);
    2c67:	48 8b 13             	mov    (%rbx),%rdx
    2c6a:	49 c1 e8 13          	shr    $0x13,%r8
		return head - 1;
    2c6e:	48 8d 42 ff          	lea    -0x1(%rdx),%rax
    2c72:	41 83 e0 01          	and    $0x1,%r8d
	return !PageSwapBacked(page);
    2c76:	41 83 f0 01          	xor    $0x1,%r8d
		return LRU_UNEVICTABLE;

	lru = page_is_file_lru(page) ? LRU_INACTIVE_FILE : LRU_INACTIVE_ANON;
    2c7a:	45 0f b6 c0          	movzbl %r8b,%r8d
    2c7e:	45 01 c0             	add    %r8d,%r8d
    2c81:	83 e2 01             	and    $0x1,%edx
    2c84:	49 0f 44 c6          	cmove  %r14,%rax
	if (PageActive(page))
		lru += LRU_ACTIVE;
    2c88:	41 8d 50 01          	lea    0x1(%r8),%edx
    2c8c:	48 8b 00             	mov    (%rax),%rax
	if (PageActive(page))
    2c8f:	a8 20                	test   $0x20,%al
    2c91:	0f 85 3c 01 00 00    	jne    2dd3 <move_pages_to_lru+0x313>
    2c97:	44 89 c0             	mov    %r8d,%eax
    2c9a:	41 89 d3             	mov    %edx,%r11d
    2c9d:	48 89 c7             	mov    %rax,%rdi
    2ca0:	48 c1 e7 04          	shl    $0x4,%rdi
    2ca4:	48 89 7d 90          	mov    %rdi,-0x70(%rbp)
    2ca8:	48 8b 53 f8          	mov    -0x8(%rbx),%rdx
	return (page->flags >> ZONES_PGSHIFT) & ZONES_MASK;
    2cac:	4c 8b 63 f8          	mov    -0x8(%rbx),%r12
    2cb0:	48 89 45 98          	mov    %rax,-0x68(%rbp)
	__mod_lruvec_state(lruvec, NR_LRU_BASE + lru, nr_pages);
    2cb4:	44 89 c6             	mov    %r8d,%esi
extern void lruvec_init(struct lruvec *lruvec);

static inline struct pglist_data *lruvec_pgdat(struct lruvec *lruvec)
{
#ifdef CONFIG_MEMCG
	return lruvec->pgdat;
    2cb7:	49 8b 85 88 00 00 00 	mov    0x88(%r13),%rax
    2cbe:	4c 89 ef             	mov    %r13,%rdi
    2cc1:	44 89 5d a4          	mov    %r11d,-0x5c(%rbp)
    2cc5:	48 c1 ea 10          	shr    $0x10,%rdx
    2cc9:	44 89 45 b4          	mov    %r8d,-0x4c(%rbp)
    2ccd:	83 e2 01             	and    $0x1,%edx
    2cd0:	48 89 45 b8          	mov    %rax,-0x48(%rbp)
 * @page: The head page of a huge page.
 */
static inline int thp_nr_pages(struct page *page)
{
	VM_BUG_ON_PGFLAGS(PageTail(page), page);
	if (PageHead(page))
    2cd4:	80 fa 01             	cmp    $0x1,%dl
    2cd7:	4d 19 d2             	sbb    %r10,%r10
    2cda:	49 81 e2 01 fe ff ff 	and    $0xfffffffffffffe01,%r10
    2ce1:	49 81 c2 00 02 00 00 	add    $0x200,%r10
    2ce8:	80 fa 01             	cmp    $0x1,%dl
    2ceb:	19 c9                	sbb    %ecx,%ecx
    2ced:	49 c1 ec 33          	shr    $0x33,%r12
    2cf1:	4c 89 55 a8          	mov    %r10,-0x58(%rbp)
    2cf5:	81 e1 01 fe ff ff    	and    $0xfffffe01,%ecx
    2cfb:	41 83 e4 07          	and    $0x7,%r12d
    2cff:	81 c1 00 02 00 00    	add    $0x200,%ecx
    2d05:	89 ca                	mov    %ecx,%edx
    2d07:	89 4d b0             	mov    %ecx,-0x50(%rbp)
    2d0a:	e8 00 00 00 00       	call   2d0f <move_pages_to_lru+0x24f>
	__mod_zone_page_state(&pgdat->node_zones[zid],
    2d0f:	44 89 e2             	mov    %r12d,%edx
    2d12:	48 8b 45 b8          	mov    -0x48(%rbp),%rax
    2d16:	8b 75 a4             	mov    -0x5c(%rbp),%esi
    2d19:	48 8d 14 52          	lea    (%rdx,%rdx,2),%rdx
    2d1d:	48 8d 14 d2          	lea    (%rdx,%rdx,8),%rdx
    2d21:	48 c1 e2 06          	shl    $0x6,%rdx
    2d25:	48 8d 3c 10          	lea    (%rax,%rdx,1),%rdi
    2d29:	48 8b 55 a8          	mov    -0x58(%rbp),%rdx
    2d2d:	e8 00 00 00 00       	call   2d32 <move_pages_to_lru+0x272>
	mem_cgroup_update_lru_size(lruvec, lru, zid, nr_pages);
    2d32:	8b 75 b4             	mov    -0x4c(%rbp),%esi
    2d35:	8b 4d b0             	mov    -0x50(%rbp),%ecx
    2d38:	44 89 e2             	mov    %r12d,%edx
    2d3b:	4c 89 ef             	mov    %r13,%rdi
    2d3e:	e8 00 00 00 00       	call   2d43 <move_pages_to_lru+0x283>
	__list_add(new, head, head->next);
    2d43:	48 8b 45 98          	mov    -0x68(%rbp),%rax
				struct lruvec *lruvec)
{
	enum lru_list lru = page_lru(page);

	update_lru_size(lruvec, lru, page_zonenum(page), thp_nr_pages(page));
	list_add(&page->lru, &lruvec->lists[lru]);
    2d47:	48 8b 55 90          	mov    -0x70(%rbp),%rdx
    2d4b:	48 c1 e0 04          	shl    $0x4,%rax
    2d4f:	4c 01 ea             	add    %r13,%rdx
    2d52:	49 8b 44 05 00       	mov    0x0(%r13,%rax,1),%rax
	next->prev = new;
    2d57:	48 89 58 08          	mov    %rbx,0x8(%rax)
	new->next = next;
    2d5b:	48 89 03             	mov    %rax,(%rbx)
	new->prev = prev;
    2d5e:	48 89 53 08          	mov    %rdx,0x8(%rbx)
	WRITE_ONCE(prev->next, new);
    2d62:	48 89 1a             	mov    %rbx,(%rdx)
    2d65:	48 8b 43 f8          	mov    -0x8(%rbx),%rax
    2d69:	48 c1 e8 10          	shr    $0x10,%rax
    2d6d:	83 e0 01             	and    $0x1,%eax
		return HPAGE_PMD_NR;
    2d70:	3c 01                	cmp    $0x1,%al
	unsigned long head = READ_ONCE(page->compound_head);
    2d72:	48 8b 03             	mov    (%rbx),%rax
    2d75:	19 f6                	sbb    %esi,%esi
    2d77:	81 e6 01 fe ff ff    	and    $0xfffffe01,%esi
		return head - 1;
    2d7d:	48 8d 50 ff          	lea    -0x1(%rax),%rdx
    2d81:	81 c6 00 02 00 00    	add    $0x200,%esi
		nr_moved += nr_pages;
    2d87:	01 75 a0             	add    %esi,-0x60(%rbp)
    2d8a:	a8 01                	test   $0x1,%al
    2d8c:	4c 0f 45 f2          	cmovne %rdx,%r14
    2d90:	49 8b 06             	mov    (%r14),%rax
		if (PageActive(page))
    2d93:	a8 20                	test   $0x20,%al
    2d95:	75 2f                	jne    2dc6 <move_pages_to_lru+0x306>
	return READ_ONCE(head->next) == head;
    2d97:	49 8b 07             	mov    (%r15),%rax
	while (!list_empty(list)) {
    2d9a:	49 39 c7             	cmp    %rax,%r15
    2d9d:	0f 85 6b fd ff ff    	jne    2b0e <move_pages_to_lru+0x4e>
    2da3:	e9 04 fe ff ff       	jmp    2bac <move_pages_to_lru+0xec>
    2da8:	48 c7 45 90 40 00 00 	movq   $0x40,-0x70(%rbp)
    2daf:	00 
    2db0:	41 bb 05 00 00 00    	mov    $0x5,%r11d
		return LRU_UNEVICTABLE;
    2db6:	41 b8 04 00 00 00    	mov    $0x4,%r8d
    2dbc:	b8 04 00 00 00       	mov    $0x4,%eax
    2dc1:	e9 e2 fe ff ff       	jmp    2ca8 <move_pages_to_lru+0x1e8>
			workingset_age_nonresident(lruvec, nr_pages);
    2dc6:	48 63 f6             	movslq %esi,%rsi
    2dc9:	4c 89 ef             	mov    %r13,%rdi
    2dcc:	e8 00 00 00 00       	call   2dd1 <move_pages_to_lru+0x311>
    2dd1:	eb c4                	jmp    2d97 <move_pages_to_lru+0x2d7>
		lru += LRU_ACTIVE;
    2dd3:	89 d0                	mov    %edx,%eax
				NR_ZONE_LRU_BASE + lru, nr_pages);
    2dd5:	45 8d 58 02          	lea    0x2(%r8),%r11d
		lru += LRU_ACTIVE;
    2dd9:	41 89 d0             	mov    %edx,%r8d
    2ddc:	48 89 c1             	mov    %rax,%rcx
    2ddf:	48 c1 e1 04          	shl    $0x4,%rcx
    2de3:	48 89 4d 90          	mov    %rcx,-0x70(%rbp)
    2de7:	e9 bc fe ff ff       	jmp    2ca8 <move_pages_to_lru+0x1e8>
    2dec:	83 e2 01             	and    $0x1,%edx
    2def:	49 0f 44 c6          	cmove  %r14,%rax
	asm volatile(__ASM_SIZE(btr) " %1,%0" : : ADDR, "Ir" (nr) : "memory");
    2df3:	48 0f ba 30 04       	btrq   $0x4,(%rax)
	unsigned long head = READ_ONCE(page->compound_head);
    2df8:	48 8b 13             	mov    (%rbx),%rdx
		return head - 1;
    2dfb:	48 8d 42 ff          	lea    -0x1(%rdx),%rax
    2dff:	83 e2 01             	and    $0x1,%edx
    2e02:	49 0f 44 c6          	cmove  %r14,%rax
		(addr[nr >> _BITOPS_LONG_SHIFT])) != 0;
    2e06:	48 8b 00             	mov    (%rax),%rax
	if (PageActive(page) && PageUnevictable(page))
    2e09:	a8 20                	test   $0x20,%al
    2e0b:	0f 85 b5 00 00 00    	jne    2ec6 <move_pages_to_lru+0x406>
	unsigned long head = READ_ONCE(page->compound_head);
    2e11:	48 8b 13             	mov    (%rbx),%rdx
		return head - 1;
    2e14:	48 8d 42 ff          	lea    -0x1(%rdx),%rax
    2e18:	83 e2 01             	and    $0x1,%edx
    2e1b:	49 0f 44 c6          	cmove  %r14,%rax
	asm volatile(__ASM_SIZE(btr) " %1,%0" : : ADDR, "Ir" (nr) : "memory");
    2e1f:	48 0f ba 30 05       	btrq   $0x5,(%rax)
	unsigned long head = READ_ONCE(page->compound_head);
    2e24:	48 8b 13             	mov    (%rbx),%rdx
		return head - 1;
    2e27:	48 8d 42 ff          	lea    -0x1(%rdx),%rax
    2e2b:	83 e2 01             	and    $0x1,%edx
    2e2e:	49 0f 44 c6          	cmove  %r14,%rax
    2e32:	48 0f ba 30 14       	btrq   $0x14,(%rax)
		(addr[nr >> _BITOPS_LONG_SHIFT])) != 0;
    2e37:	48 8b 43 f8          	mov    -0x8(%rbx),%rax
	return READ_ONCE(page->compound_head) & 1;
}

static __always_inline int PageCompound(struct page *page)
{
	return test_bit(PG_head, &page->flags) || PageTail(page);
    2e3b:	a9 00 00 01 00       	test   $0x10000,%eax
    2e40:	74 61                	je     2ea3 <move_pages_to_lru+0x3e3>
	arch_spin_unlock(&lock->raw_lock);
    2e42:	4d 8d 65 50          	lea    0x50(%r13),%r12
	PVOP_ALT_VCALLEE1(lock.queued_spin_unlock, lock,
    2e46:	4c 89 e7             	mov    %r12,%rdi
    2e49:	ff 14 25 00 00 00 00 	call   *0x0
	PVOP_ALT_VCALLEE0(irq.irq_enable, "sti;", ALT_NOT(X86_FEATURE_XENPV));
    2e50:	ff 14 25 00 00 00 00 	call   *0x0
	compound_page_dtors[page[1].compound_dtor](page);
    2e57:	0f b6 43 48          	movzbl 0x48(%rbx),%eax
    2e5b:	4c 89 f7             	mov    %r14,%rdi
    2e5e:	48 8b 04 c5 00 00 00 	mov    0x0(,%rax,8),%rax
    2e65:	00 
    2e66:	e8 00 00 00 00       	call   2e6b <move_pages_to_lru+0x3ab>
    2e6b:	e9 28 fd ff ff       	jmp    2b98 <move_pages_to_lru+0xd8>
	return (page->flags >> ZONES_PGSHIFT) & ZONES_MASK;
    2e70:	49 8b 06             	mov    (%r14),%rax
    2e73:	48 c1 e8 33          	shr    $0x33,%rax
    2e77:	83 e0 07             	and    $0x7,%eax
	if (!is_zone_device_page(page))
    2e7a:	83 f8 04             	cmp    $0x4,%eax
    2e7d:	0f 85 0a fd ff ff    	jne    2b8d <move_pages_to_lru+0xcd>
	switch (page->pgmap->type) {
    2e83:	49 8b 46 08          	mov    0x8(%r14),%rax
    2e87:	8b 40 68             	mov    0x68(%rax),%eax
    2e8a:	83 e8 01             	sub    $0x1,%eax
    2e8d:	83 f8 01             	cmp    $0x1,%eax
    2e90:	0f 87 f7 fc ff ff    	ja     2b8d <move_pages_to_lru+0xcd>
		put_devmap_managed_page(page);
    2e96:	4c 89 f7             	mov    %r14,%rdi
    2e99:	e8 00 00 00 00       	call   2e9e <move_pages_to_lru+0x3de>
		return;
    2e9e:	e9 f5 fc ff ff       	jmp    2b98 <move_pages_to_lru+0xd8>
	return READ_ONCE(page->compound_head) & 1;
    2ea3:	48 8b 03             	mov    (%rbx),%rax
	return test_bit(PG_head, &page->flags) || PageTail(page);
    2ea6:	a8 01                	test   $0x1,%al
    2ea8:	75 98                	jne    2e42 <move_pages_to_lru+0x382>
	__list_add(new, head, head->next);
    2eaa:	48 8b 45 c0          	mov    -0x40(%rbp),%rax
	next->prev = new;
    2eae:	48 89 58 08          	mov    %rbx,0x8(%rax)
	new->next = next;
    2eb2:	48 89 03             	mov    %rax,(%rbx)
	new->prev = prev;
    2eb5:	48 8d 45 c0          	lea    -0x40(%rbp),%rax
    2eb9:	48 89 43 08          	mov    %rax,0x8(%rbx)
	WRITE_ONCE(prev->next, new);
    2ebd:	48 89 5d c0          	mov    %rbx,-0x40(%rbp)
}
    2ec1:	e9 d1 fe ff ff       	jmp    2d97 <move_pages_to_lru+0x2d7>
	unsigned long head = READ_ONCE(page->compound_head);
    2ec6:	48 8b 13             	mov    (%rbx),%rdx
		return head - 1;
    2ec9:	48 8d 42 ff          	lea    -0x1(%rdx),%rax
    2ecd:	83 e2 01             	and    $0x1,%edx
    2ed0:	49 0f 44 c6          	cmove  %r14,%rax
    2ed4:	48 8b 00             	mov    (%rax),%rax
    2ed7:	a9 00 00 10 00       	test   $0x100000,%eax
    2edc:	0f 84 2f ff ff ff    	je     2e11 <move_pages_to_lru+0x351>
    2ee2:	e9 50 ff ff ff       	jmp    2e37 <move_pages_to_lru+0x377>
		__put_page(page);
    2ee7:	4c 89 f7             	mov    %r14,%rdi
    2eea:	e8 00 00 00 00       	call   2eef <move_pages_to_lru+0x42f>
	raw_spin_lock_irq(&lock->rlock);
    2eef:	e9 a4 fc ff ff       	jmp    2b98 <move_pages_to_lru+0xd8>
	return READ_ONCE(head->next) == head;
    2ef4:	48 8b 45 c0          	mov    -0x40(%rbp),%rax
    2ef8:	31 c0                	xor    %eax,%eax
    2efa:	e9 da fc ff ff       	jmp    2bd9 <move_pages_to_lru+0x119>
}
    2eff:	e8 00 00 00 00       	call   2f04 <move_pages_to_lru+0x444>
    2f04:	66 66 2e 0f 1f 84 00 	data16 cs nopw 0x0(%rax,%rax,1)
    2f0b:	00 00 00 00 
    2f0f:	90                   	nop

0000000000002f10 <check_move_unevictable_pages>:
 * Checks pages for evictability, if an evictable page is in the unevictable
 * lru list, moves it to the appropriate evictable lru list. This function
 * should be only used for lru pages.
 */
void check_move_unevictable_pages(struct pagevec *pvec)
{
    2f10:	e8 00 00 00 00       	call   2f15 <check_move_unevictable_pages+0x5>
	struct lruvec *lruvec = NULL;
	int pgscanned = 0;
	int pgrescued = 0;
	int i;

	for (i = 0; i < pvec->nr; i++) {
    2f15:	80 3f 00             	cmpb   $0x0,(%rdi)
    2f18:	0f 84 95 04 00 00    	je     33b3 <check_move_unevictable_pages+0x4a3>
{
    2f1e:	55                   	push   %rbp
    2f1f:	48 89 e5             	mov    %rsp,%rbp
    2f22:	41 57                	push   %r15
    2f24:	41 56                	push   %r14
	for (i = 0; i < pvec->nr; i++) {
    2f26:	45 31 f6             	xor    %r14d,%r14d
{
    2f29:	41 55                	push   %r13
	struct lruvec *lruvec = NULL;
    2f2b:	45 31 ed             	xor    %r13d,%r13d
{
    2f2e:	41 54                	push   %r12
	entry->prev = LIST_POISON2;
    2f30:	4d 89 ec             	mov    %r13,%r12
    2f33:	49 89 fd             	mov    %rdi,%r13
    2f36:	53                   	push   %rbx
    2f37:	48 83 ec 48          	sub    $0x48,%rsp
	int pgrescued = 0;
    2f3b:	c7 45 d0 00 00 00 00 	movl   $0x0,-0x30(%rbp)
	int pgscanned = 0;
    2f42:	c7 45 d4 00 00 00 00 	movl   $0x0,-0x2c(%rbp)
		struct page *page = pvec->pages[i];
    2f49:	49 63 c6             	movslq %r14d,%rax
    2f4c:	49 8b 5c c5 08       	mov    0x8(%r13,%rax,8),%rbx
	return READ_ONCE(page->compound_head) & 1;
    2f51:	48 8b 43 08          	mov    0x8(%rbx),%rax
		int nr_pages;

		if (PageTransTail(page))
    2f55:	a8 01                	test   $0x1,%al
    2f57:	0f 85 a7 00 00 00    	jne    3004 <check_move_unevictable_pages+0xf4>
    2f5d:	48 8b 03             	mov    (%rbx),%rax
	unsigned long head = READ_ONCE(page->compound_head);
    2f60:	48 8b 53 08          	mov    0x8(%rbx),%rdx
    2f64:	48 c1 e8 10          	shr    $0x10,%rax
    2f68:	83 e0 01             	and    $0x1,%eax
    2f6b:	3c 01                	cmp    $0x1,%al
		return head - 1;
    2f6d:	48 8d 42 ff          	lea    -0x1(%rdx),%rax
    2f71:	45 19 ff             	sbb    %r15d,%r15d
    2f74:	41 81 e7 01 fe ff ff 	and    $0xfffffe01,%r15d
    2f7b:	41 81 c7 00 02 00 00 	add    $0x200,%r15d
			continue;

		nr_pages = thp_nr_pages(page);
		pgscanned += nr_pages;
    2f82:	44 01 7d d4          	add    %r15d,-0x2c(%rbp)
    2f86:	83 e2 01             	and    $0x1,%edx
    2f89:	48 0f 44 c3          	cmove  %rbx,%rax
	return GEN_BINARY_RMWcc(LOCK_PREFIX __ASM_SIZE(btr), *addr, c, "Ir", nr);
    2f8d:	f0 48 0f ba 30 04    	lock btrq $0x4,(%rax)

		/* block memcg migration during page moving between lru */
		if (!TestClearPageLRU(page))
    2f93:	73 6f                	jae    3004 <check_move_unevictable_pages+0xf4>

/* Don't lock again iff page's lruvec locked */
static inline struct lruvec *relock_page_lruvec_irq(struct page *page,
		struct lruvec *locked_lruvec)
{
	if (locked_lruvec) {
    2f95:	4d 85 e4             	test   %r12,%r12
    2f98:	74 30                	je     2fca <check_move_unevictable_pages+0xba>
	return &NODE_DATA(page_to_nid(page))->node_zones[page_zonenum(page)];
}

static inline pg_data_t *page_pgdat(const struct page *page)
{
	return NODE_DATA(page_to_nid(page));
    2f9a:	48 8b 03             	mov    (%rbx),%rax
    2f9d:	48 c1 e8 36          	shr    $0x36,%rax
	return lruvec_pgdat(lruvec) == page_pgdat(page) &&
    2fa1:	48 8b 04 c5 00 00 00 	mov    0x0(,%rax,8),%rax
    2fa8:	00 
    2fa9:	49 39 84 24 88 00 00 	cmp    %rax,0x88(%r12)
    2fb0:	00 
    2fb1:	0f 84 72 03 00 00    	je     3329 <check_move_unevictable_pages+0x419>
	arch_spin_unlock(&lock->raw_lock);
    2fb7:	49 8d 7c 24 50       	lea    0x50(%r12),%rdi
	PVOP_ALT_VCALLEE1(lock.queued_spin_unlock, lock,
    2fbc:	ff 14 25 00 00 00 00 	call   *0x0
	PVOP_ALT_VCALLEE0(irq.irq_enable, "sti;", ALT_NOT(X86_FEATURE_XENPV));
    2fc3:	ff 14 25 00 00 00 00 	call   *0x0
			return locked_lruvec;

		unlock_page_lruvec_irq(locked_lruvec);
	}

	return lock_page_lruvec_irq(page);
    2fca:	48 89 df             	mov    %rbx,%rdi
    2fcd:	e8 00 00 00 00       	call   2fd2 <check_move_unevictable_pages+0xc2>
    2fd2:	49 89 c4             	mov    %rax,%r12
    2fd5:	48 89 df             	mov    %rbx,%rdi
    2fd8:	e8 00 00 00 00       	call   2fdd <check_move_unevictable_pages+0xcd>
    2fdd:	48 85 c0             	test   %rax,%rax
    2fe0:	74 77                	je     3059 <check_move_unevictable_pages+0x149>
		(addr[nr >> _BITOPS_LONG_SHIFT])) != 0;
    2fe2:	48 8b 80 98 00 00 00 	mov    0x98(%rax),%rax
    2fe9:	a8 08                	test   $0x8,%al
    2feb:	74 6c                	je     3059 <check_move_unevictable_pages+0x149>
    2fed:	e8 00 00 00 00       	call   2ff2 <check_move_unevictable_pages+0xe2>
	unsigned long head = READ_ONCE(page->compound_head);
    2ff2:	48 8b 43 08          	mov    0x8(%rbx),%rax
		return head - 1;
    2ff6:	48 8d 50 ff          	lea    -0x1(%rax),%rdx
    2ffa:	a8 01                	test   $0x1,%al
    2ffc:	48 0f 45 da          	cmovne %rdx,%rbx
		asm volatile(LOCK_PREFIX "orb %b1,%0"
    3000:	f0 80 0b 10          	lock orb $0x10,(%rbx)
	for (i = 0; i < pvec->nr; i++) {
    3004:	41 0f b6 45 00       	movzbl 0x0(%r13),%eax
    3009:	41 83 c6 01          	add    $0x1,%r14d
    300d:	44 39 f0             	cmp    %r14d,%eax
    3010:	0f 8f 33 ff ff ff    	jg     2f49 <check_move_unevictable_pages+0x39>
			pgrescued += nr_pages;
		}
		SetPageLRU(page);
	}

	if (lruvec) {
    3016:	4d 85 e4             	test   %r12,%r12
    3019:	0f 84 e4 02 00 00    	je     3303 <check_move_unevictable_pages+0x3f3>
	raw_cpu_add(vm_event_states.event[item], delta);
    301f:	48 63 45 d0          	movslq -0x30(%rbp),%rax
    3023:	49 8d 7c 24 50       	lea    0x50(%r12),%rdi
    3028:	65 48 01 05 00 00 00 	add    %rax,%gs:0x0(%rip)        # 3030 <check_move_unevictable_pages+0x120>
    302f:	00 
    3030:	48 63 45 d4          	movslq -0x2c(%rbp),%rax
    3034:	65 48 01 05 00 00 00 	add    %rax,%gs:0x0(%rip)        # 303c <check_move_unevictable_pages+0x12c>
    303b:	00 
	PVOP_ALT_VCALLEE1(lock.queued_spin_unlock, lock,
    303c:	ff 14 25 00 00 00 00 	call   *0x0
	PVOP_ALT_VCALLEE0(irq.irq_enable, "sti;", ALT_NOT(X86_FEATURE_XENPV));
    3043:	ff 14 25 00 00 00 00 	call   *0x0
		__count_vm_events(UNEVICTABLE_PGSCANNED, pgscanned);
		unlock_page_lruvec_irq(lruvec);
	} else if (pgscanned) {
		count_vm_events(UNEVICTABLE_PGSCANNED, pgscanned);
	}
}
    304a:	48 83 c4 48          	add    $0x48,%rsp
    304e:	5b                   	pop    %rbx
    304f:	41 5c                	pop    %r12
    3051:	41 5d                	pop    %r13
    3053:	41 5e                	pop    %r14
    3055:	41 5f                	pop    %r15
    3057:	5d                   	pop    %rbp
    3058:	c3                   	ret    
	unsigned long head = READ_ONCE(page->compound_head);
    3059:	48 8b 53 08          	mov    0x8(%rbx),%rdx
	if (unlikely(head & 1))
    305d:	48 8d 42 ff          	lea    -0x1(%rdx),%rax
    3061:	83 e2 01             	and    $0x1,%edx
    3064:	48 0f 44 c3          	cmove  %rbx,%rax
		(addr[nr >> _BITOPS_LONG_SHIFT])) != 0;
    3068:	48 8b 00             	mov    (%rax),%rax
    306b:	48 89 45 c8          	mov    %rax,-0x38(%rbp)
    306f:	e8 00 00 00 00       	call   3074 <check_move_unevictable_pages+0x164>
		if (page_evictable(page) && PageUnevictable(page)) {
    3074:	48 f7 45 c8 00 00 20 	testq  $0x200000,-0x38(%rbp)
    307b:	00 
    307c:	0f 85 70 ff ff ff    	jne    2ff2 <check_move_unevictable_pages+0xe2>
	unsigned long head = READ_ONCE(page->compound_head);
    3082:	48 8b 53 08          	mov    0x8(%rbx),%rdx
		return head - 1;
    3086:	48 8d 42 ff          	lea    -0x1(%rdx),%rax
    308a:	83 e2 01             	and    $0x1,%edx
    308d:	48 0f 44 c3          	cmove  %rbx,%rax
    3091:	48 8b 00             	mov    (%rax),%rax
    3094:	a9 00 00 10 00       	test   $0x100000,%eax
    3099:	0f 84 53 ff ff ff    	je     2ff2 <check_move_unevictable_pages+0xe2>
}

static __always_inline void del_page_from_lru_list(struct page *page,
				struct lruvec *lruvec)
{
	list_del(&page->lru);
    309f:	48 8d 43 08          	lea    0x8(%rbx),%rax
	__list_del(entry->prev, entry->next);
    30a3:	48 8b 53 08          	mov    0x8(%rbx),%rdx
    30a7:	48 89 45 c0          	mov    %rax,-0x40(%rbp)
    30ab:	48 8b 43 10          	mov    0x10(%rbx),%rax
	next->prev = prev;
    30af:	48 89 42 08          	mov    %rax,0x8(%rdx)
	WRITE_ONCE(prev->next, next);
    30b3:	48 89 10             	mov    %rdx,(%rax)
	entry->next = LIST_POISON1;
    30b6:	48 b8 00 01 00 00 00 	movabs $0xdead000000000100,%rax
    30bd:	00 ad de 
    30c0:	48 89 43 08          	mov    %rax,0x8(%rbx)
	entry->prev = LIST_POISON2;
    30c4:	48 83 c0 22          	add    $0x22,%rax
    30c8:	48 89 43 10          	mov    %rax,0x10(%rbx)
    30cc:	48 8b 03             	mov    (%rbx),%rax
	unsigned long head = READ_ONCE(page->compound_head);
    30cf:	48 8b 53 08          	mov    0x8(%rbx),%rdx
    30d3:	48 c1 e8 10          	shr    $0x10,%rax
    30d7:	83 e0 01             	and    $0x1,%eax
	if (PageHead(page))
    30da:	3c 01                	cmp    $0x1,%al
    30dc:	4d 19 d2             	sbb    %r10,%r10
    30df:	49 81 ca 00 fe ff ff 	or     $0xfffffffffffffe00,%r10
    30e6:	3c 01                	cmp    $0x1,%al
	return (page->flags >> ZONES_PGSHIFT) & ZONES_MASK;
    30e8:	48 8b 03             	mov    (%rbx),%rax
    30eb:	19 c9                	sbb    %ecx,%ecx
    30ed:	48 c1 e8 33          	shr    $0x33,%rax
    30f1:	81 c9 00 fe ff ff    	or     $0xfffffe00,%ecx
    30f7:	83 e0 07             	and    $0x7,%eax
    30fa:	89 45 c8             	mov    %eax,-0x38(%rbp)
		return head - 1;
    30fd:	48 8d 42 ff          	lea    -0x1(%rdx),%rax
    3101:	83 e2 01             	and    $0x1,%edx
    3104:	48 0f 44 c3          	cmove  %rbx,%rax
    3108:	48 8b 00             	mov    (%rax),%rax
	if (PageUnevictable(page))
    310b:	a9 00 00 10 00       	test   $0x100000,%eax
    3110:	0f 85 6d 02 00 00    	jne    3383 <check_move_unevictable_pages+0x473>
	unsigned long head = READ_ONCE(page->compound_head);
    3116:	48 8b 53 08          	mov    0x8(%rbx),%rdx
		return head - 1;
    311a:	48 8d 42 ff          	lea    -0x1(%rdx),%rax
    311e:	83 e2 01             	and    $0x1,%edx
    3121:	48 0f 44 c3          	cmove  %rbx,%rax
    3125:	48 8b 00             	mov    (%rax),%rax
	unsigned long head = READ_ONCE(page->compound_head);
    3128:	48 8b 53 08          	mov    0x8(%rbx),%rdx
    312c:	48 c1 e8 13          	shr    $0x13,%rax
    3130:	83 e0 01             	and    $0x1,%eax
	return !PageSwapBacked(page);
    3133:	83 f0 01             	xor    $0x1,%eax
	lru = page_is_file_lru(page) ? LRU_INACTIVE_FILE : LRU_INACTIVE_ANON;
    3136:	0f b6 c0             	movzbl %al,%eax
    3139:	44 8d 04 00          	lea    (%rax,%rax,1),%r8d
		return head - 1;
    313d:	48 8d 42 ff          	lea    -0x1(%rdx),%rax
    3141:	83 e2 01             	and    $0x1,%edx
    3144:	48 0f 44 c3          	cmove  %rbx,%rax
		lru += LRU_ACTIVE;
    3148:	45 8d 58 01          	lea    0x1(%r8),%r11d
    314c:	48 8b 00             	mov    (%rax),%rax
	if (PageActive(page))
    314f:	a8 20                	test   $0x20,%al
    3151:	0f 85 1d 02 00 00    	jne    3374 <check_move_unevictable_pages+0x464>
    3157:	49 8b 84 24 88 00 00 	mov    0x88(%r12),%rax
    315e:	00 
	__mod_lruvec_state(lruvec, NR_LRU_BASE + lru, nr_pages);
    315f:	44 89 c6             	mov    %r8d,%esi
    3162:	89 ca                	mov    %ecx,%edx
    3164:	4c 89 e7             	mov    %r12,%rdi
    3167:	4c 89 55 a0          	mov    %r10,-0x60(%rbp)
    316b:	44 89 5d a8          	mov    %r11d,-0x58(%rbp)
    316f:	89 4d b0             	mov    %ecx,-0x50(%rbp)
    3172:	44 89 45 b4          	mov    %r8d,-0x4c(%rbp)
    3176:	48 89 45 b8          	mov    %rax,-0x48(%rbp)
    317a:	e8 00 00 00 00       	call   317f <check_move_unevictable_pages+0x26f>
	__mod_zone_page_state(&pgdat->node_zones[zid],
    317f:	8b 45 c8             	mov    -0x38(%rbp),%eax
    3182:	48 8b 75 b8          	mov    -0x48(%rbp),%rsi
    3186:	48 8b 55 a0          	mov    -0x60(%rbp),%rdx
    318a:	48 8d 04 40          	lea    (%rax,%rax,2),%rax
    318e:	48 8d 04 c0          	lea    (%rax,%rax,8),%rax
    3192:	48 c1 e0 06          	shl    $0x6,%rax
    3196:	48 8d 3c 06          	lea    (%rsi,%rax,1),%rdi
    319a:	8b 75 a8             	mov    -0x58(%rbp),%esi
    319d:	e8 00 00 00 00       	call   31a2 <check_move_unevictable_pages+0x292>
	mem_cgroup_update_lru_size(lruvec, lru, zid, nr_pages);
    31a2:	8b 55 c8             	mov    -0x38(%rbp),%edx
    31a5:	8b 4d b0             	mov    -0x50(%rbp),%ecx
    31a8:	4c 89 e7             	mov    %r12,%rdi
    31ab:	8b 75 b4             	mov    -0x4c(%rbp),%esi
    31ae:	e8 00 00 00 00       	call   31b3 <check_move_unevictable_pages+0x2a3>
	unsigned long head = READ_ONCE(page->compound_head);
    31b3:	48 8b 53 08          	mov    0x8(%rbx),%rdx
		return head - 1;
    31b7:	48 8d 42 ff          	lea    -0x1(%rdx),%rax
    31bb:	83 e2 01             	and    $0x1,%edx
    31be:	48 0f 44 c3          	cmove  %rbx,%rax
		asm volatile(LOCK_PREFIX "andb %b1,%0"
    31c2:	f0 80 60 02 ef       	lock andb $0xef,0x2(%rax)
	unsigned long head = READ_ONCE(page->compound_head);
    31c7:	48 8b 53 08          	mov    0x8(%rbx),%rdx
		return head - 1;
    31cb:	48 8d 42 ff          	lea    -0x1(%rdx),%rax
    31cf:	83 e2 01             	and    $0x1,%edx
    31d2:	48 0f 44 c3          	cmove  %rbx,%rax
		(addr[nr >> _BITOPS_LONG_SHIFT])) != 0;
    31d6:	48 8b 00             	mov    (%rax),%rax
	if (PageUnevictable(page))
    31d9:	a9 00 00 10 00       	test   $0x100000,%eax
    31de:	0f 85 b0 01 00 00    	jne    3394 <check_move_unevictable_pages+0x484>
	unsigned long head = READ_ONCE(page->compound_head);
    31e4:	48 8b 53 08          	mov    0x8(%rbx),%rdx
		return head - 1;
    31e8:	48 8d 42 ff          	lea    -0x1(%rdx),%rax
    31ec:	83 e2 01             	and    $0x1,%edx
    31ef:	48 0f 44 c3          	cmove  %rbx,%rax
    31f3:	4c 8b 10             	mov    (%rax),%r10
	unsigned long head = READ_ONCE(page->compound_head);
    31f6:	48 8b 53 08          	mov    0x8(%rbx),%rdx
    31fa:	49 c1 ea 13          	shr    $0x13,%r10
		return head - 1;
    31fe:	48 8d 42 ff          	lea    -0x1(%rdx),%rax
    3202:	41 83 e2 01          	and    $0x1,%r10d
	return !PageSwapBacked(page);
    3206:	41 83 f2 01          	xor    $0x1,%r10d
	lru = page_is_file_lru(page) ? LRU_INACTIVE_FILE : LRU_INACTIVE_ANON;
    320a:	45 0f b6 d2          	movzbl %r10b,%r10d
    320e:	45 01 d2             	add    %r10d,%r10d
    3211:	83 e2 01             	and    $0x1,%edx
    3214:	48 0f 44 c3          	cmove  %rbx,%rax
		lru += LRU_ACTIVE;
    3218:	41 8d 52 01          	lea    0x1(%r10),%edx
    321c:	48 8b 00             	mov    (%rax),%rax
	if (PageActive(page))
    321f:	a8 20                	test   $0x20,%al
    3221:	0f 85 31 01 00 00    	jne    3358 <check_move_unevictable_pages+0x448>
    3227:	45 89 d0             	mov    %r10d,%r8d
    322a:	41 89 d1             	mov    %edx,%r9d
    322d:	4c 89 c0             	mov    %r8,%rax
    3230:	48 c1 e0 04          	shl    $0x4,%rax
    3234:	48 89 45 90          	mov    %rax,-0x70(%rbp)
    3238:	48 8b 13             	mov    (%rbx),%rdx
    323b:	48 8b 03             	mov    (%rbx),%rax
	__mod_lruvec_state(lruvec, NR_LRU_BASE + lru, nr_pages);
    323e:	4c 89 e7             	mov    %r12,%rdi
    3241:	4c 89 45 98          	mov    %r8,-0x68(%rbp)
    3245:	49 8b b4 24 88 00 00 	mov    0x88(%r12),%rsi
    324c:	00 
    324d:	44 89 4d a0          	mov    %r9d,-0x60(%rbp)
    3251:	48 c1 ea 10          	shr    $0x10,%rdx
    3255:	44 89 55 b4          	mov    %r10d,-0x4c(%rbp)
    3259:	83 e2 01             	and    $0x1,%edx
    325c:	48 89 75 b8          	mov    %rsi,-0x48(%rbp)
    3260:	44 89 d6             	mov    %r10d,%esi
    3263:	80 fa 01             	cmp    $0x1,%dl
    3266:	4d 19 db             	sbb    %r11,%r11
    3269:	49 81 e3 01 fe ff ff 	and    $0xfffffffffffffe01,%r11
    3270:	49 81 c3 00 02 00 00 	add    $0x200,%r11
    3277:	80 fa 01             	cmp    $0x1,%dl
    327a:	19 c9                	sbb    %ecx,%ecx
    327c:	48 c1 e8 33          	shr    $0x33,%rax
    3280:	4c 89 5d a8          	mov    %r11,-0x58(%rbp)
    3284:	81 e1 01 fe ff ff    	and    $0xfffffe01,%ecx
    328a:	83 e0 07             	and    $0x7,%eax
    328d:	81 c1 00 02 00 00    	add    $0x200,%ecx
    3293:	89 45 c8             	mov    %eax,-0x38(%rbp)
    3296:	89 ca                	mov    %ecx,%edx
    3298:	89 4d b0             	mov    %ecx,-0x50(%rbp)
    329b:	e8 00 00 00 00       	call   32a0 <check_move_unevictable_pages+0x390>
	__mod_zone_page_state(&pgdat->node_zones[zid],
    32a0:	8b 55 c8             	mov    -0x38(%rbp),%edx
    32a3:	48 8b 75 b8          	mov    -0x48(%rbp),%rsi
    32a7:	48 8d 14 52          	lea    (%rdx,%rdx,2),%rdx
    32ab:	48 8d 14 d2          	lea    (%rdx,%rdx,8),%rdx
    32af:	48 c1 e2 06          	shl    $0x6,%rdx
    32b3:	48 8d 3c 16          	lea    (%rsi,%rdx,1),%rdi
    32b7:	48 8b 55 a8          	mov    -0x58(%rbp),%rdx
    32bb:	8b 75 a0             	mov    -0x60(%rbp),%esi
    32be:	e8 00 00 00 00       	call   32c3 <check_move_unevictable_pages+0x3b3>
	mem_cgroup_update_lru_size(lruvec, lru, zid, nr_pages);
    32c3:	8b 55 c8             	mov    -0x38(%rbp),%edx
    32c6:	8b 75 b4             	mov    -0x4c(%rbp),%esi
    32c9:	4c 89 e7             	mov    %r12,%rdi
    32cc:	8b 4d b0             	mov    -0x50(%rbp),%ecx
    32cf:	e8 00 00 00 00       	call   32d4 <check_move_unevictable_pages+0x3c4>
	__list_add(new, head, head->next);
    32d4:	48 8b 55 98          	mov    -0x68(%rbp),%rdx
	list_add(&page->lru, &lruvec->lists[lru]);
    32d8:	48 8b 45 90          	mov    -0x70(%rbp),%rax
	next->prev = new;
    32dc:	48 8b 75 c0          	mov    -0x40(%rbp),%rsi
			pgrescued += nr_pages;
    32e0:	44 01 7d d0          	add    %r15d,-0x30(%rbp)
	__list_add(new, head, head->next);
    32e4:	48 c1 e2 04          	shl    $0x4,%rdx
    32e8:	4c 01 e0             	add    %r12,%rax
    32eb:	49 8b 14 14          	mov    (%r12,%rdx,1),%rdx
	next->prev = new;
    32ef:	48 89 72 08          	mov    %rsi,0x8(%rdx)
	new->next = next;
    32f3:	48 89 53 08          	mov    %rdx,0x8(%rbx)
	new->prev = prev;
    32f7:	48 89 43 10          	mov    %rax,0x10(%rbx)
	WRITE_ONCE(prev->next, new);
    32fb:	48 89 30             	mov    %rsi,(%rax)
    32fe:	e9 ef fc ff ff       	jmp    2ff2 <check_move_unevictable_pages+0xe2>
	} else if (pgscanned) {
    3303:	8b 45 d4             	mov    -0x2c(%rbp),%eax
    3306:	85 c0                	test   %eax,%eax
    3308:	0f 84 3c fd ff ff    	je     304a <check_move_unevictable_pages+0x13a>
	this_cpu_add(vm_event_states.event[item], delta);
    330e:	48 63 45 d4          	movslq -0x2c(%rbp),%rax
    3312:	65 48 01 05 00 00 00 	add    %rax,%gs:0x0(%rip)        # 331a <check_move_unevictable_pages+0x40a>
    3319:	00 
}
    331a:	48 83 c4 48          	add    $0x48,%rsp
    331e:	5b                   	pop    %rbx
    331f:	41 5c                	pop    %r12
    3321:	41 5d                	pop    %r13
    3323:	41 5e                	pop    %r14
    3325:	41 5f                	pop    %r15
    3327:	5d                   	pop    %rbp
    3328:	c3                   	ret    
    3329:	66 90                	xchg   %ax,%ax
	return mz->memcg;
    332b:	49 8b 8c 24 50 05 00 	mov    0x550(%r12),%rcx
    3332:	00 
	return page->memcg_data & MEMCG_DATA_KMEM;
    3333:	48 8b 43 38          	mov    0x38(%rbx),%rax
	return (struct obj_cgroup *)(memcg_data & ~MEMCG_DATA_FLAGS_MASK);
    3337:	48 89 c2             	mov    %rax,%rdx
    333a:	48 83 e2 fc          	and    $0xfffffffffffffffc,%rdx
	if (PageMemcgKmem(page))
    333e:	a8 02                	test   $0x2,%al
    3340:	74 04                	je     3346 <check_move_unevictable_pages+0x436>
	return READ_ONCE(objcg->memcg);
    3342:	48 8b 52 10          	mov    0x10(%rdx),%rdx
	return lruvec_pgdat(lruvec) == page_pgdat(page) &&
    3346:	48 39 ca             	cmp    %rcx,%rdx
    3349:	0f 85 68 fc ff ff    	jne    2fb7 <check_move_unevictable_pages+0xa7>
    334f:	e9 81 fc ff ff       	jmp    2fd5 <check_move_unevictable_pages+0xc5>
		return NULL;
    3354:	31 c9                	xor    %ecx,%ecx
    3356:	eb db                	jmp    3333 <check_move_unevictable_pages+0x423>
		lru += LRU_ACTIVE;
    3358:	89 d1                	mov    %edx,%ecx
				NR_ZONE_LRU_BASE + lru, nr_pages);
    335a:	45 8d 4a 02          	lea    0x2(%r10),%r9d
		lru += LRU_ACTIVE;
    335e:	41 89 d2             	mov    %edx,%r10d
    3361:	48 89 c8             	mov    %rcx,%rax
    3364:	49 89 c8             	mov    %rcx,%r8
    3367:	48 c1 e0 04          	shl    $0x4,%rax
    336b:	48 89 45 90          	mov    %rax,-0x70(%rbp)
    336f:	e9 c4 fe ff ff       	jmp    3238 <check_move_unevictable_pages+0x328>
				NR_ZONE_LRU_BASE + lru, nr_pages);
    3374:	41 8d 40 02          	lea    0x2(%r8),%eax
		lru += LRU_ACTIVE;
    3378:	45 89 d8             	mov    %r11d,%r8d
				NR_ZONE_LRU_BASE + lru, nr_pages);
    337b:	41 89 c3             	mov    %eax,%r11d
    337e:	e9 d4 fd ff ff       	jmp    3157 <check_move_unevictable_pages+0x247>
    3383:	41 bb 05 00 00 00    	mov    $0x5,%r11d
		return LRU_UNEVICTABLE;
    3389:	41 b8 04 00 00 00    	mov    $0x4,%r8d
    338f:	e9 c3 fd ff ff       	jmp    3157 <check_move_unevictable_pages+0x247>
    3394:	48 c7 45 90 40 00 00 	movq   $0x40,-0x70(%rbp)
    339b:	00 
    339c:	41 b9 05 00 00 00    	mov    $0x5,%r9d
    33a2:	41 ba 04 00 00 00    	mov    $0x4,%r10d
    33a8:	41 b8 04 00 00 00    	mov    $0x4,%r8d
    33ae:	e9 85 fe ff ff       	jmp    3238 <check_move_unevictable_pages+0x328>
    33b3:	c3                   	ret    
    33b4:	66 66 2e 0f 1f 84 00 	data16 cs nopw 0x0(%rax,%rax,1)
    33bb:	00 00 00 00 
    33bf:	90                   	nop

00000000000033c0 <__remove_mapping>:
{
    33c0:	e8 00 00 00 00       	call   33c5 <__remove_mapping+0x5>
    33c5:	55                   	push   %rbp
    33c6:	48 89 e5             	mov    %rsp,%rbp
